
KAKAPO-20A.elf:     file format elf32-littlearm

Sections:
Idx Name          Size      VMA       LMA       File off  Algn
  0 .isr_vector   000000c0  08000000  08000000  00001000  2**0
                  CONTENTS, ALLOC, LOAD, READONLY, DATA
  1 .text         00003018  080000c0  080000c0  000010c0  2**2
                  CONTENTS, ALLOC, LOAD, READONLY, CODE
  2 .rodata       00000040  080030d8  080030d8  000040d8  2**2
                  CONTENTS, ALLOC, LOAD, READONLY, DATA
  3 .ARM.extab    00000000  08003118  08003118  000050a0  2**0
                  CONTENTS
  4 .ARM          00000000  08003118  08003118  000050a0  2**0
                  CONTENTS
  5 .preinit_array 00000000  08003118  08003118  000050a0  2**0
                  CONTENTS, ALLOC, LOAD, DATA
  6 .init_array   00000004  08003118  08003118  00004118  2**2
                  CONTENTS, ALLOC, LOAD, READONLY, DATA
  7 .fini_array   00000004  0800311c  0800311c  0000411c  2**2
                  CONTENTS, ALLOC, LOAD, READONLY, DATA
  8 .data         000000a0  20000000  08003120  00005000  2**2
                  CONTENTS, ALLOC, LOAD, DATA
  9 .bss          0000012c  200000a0  080031c0  000050a0  2**2
                  ALLOC
 10 ._user_heap_stack 00000604  200001cc  080031c0  000051cc  2**0
                  ALLOC
 11 .ARM.attributes 00000028  00000000  00000000  000050a0  2**0
                  CONTENTS, READONLY
 12 .debug_info   00006ef1  00000000  00000000  000050c8  2**0
                  CONTENTS, READONLY, DEBUGGING, OCTETS
 13 .debug_abbrev 0000222b  00000000  00000000  0000bfb9  2**0
                  CONTENTS, READONLY, DEBUGGING, OCTETS
 14 .debug_aranges 00000798  00000000  00000000  0000e1e8  2**3
                  CONTENTS, READONLY, DEBUGGING, OCTETS
 15 .debug_rnglists 000005a9  00000000  00000000  0000e980  2**0
                  CONTENTS, READONLY, DEBUGGING, OCTETS
 16 .debug_macro  00003baf  00000000  00000000  0000ef29  2**0
                  CONTENTS, READONLY, DEBUGGING, OCTETS
 17 .debug_line   0000c4ce  00000000  00000000  00012ad8  2**0
                  CONTENTS, READONLY, DEBUGGING, OCTETS
 18 .debug_str    000926fc  00000000  00000000  0001efa6  2**0
                  CONTENTS, READONLY, DEBUGGING, OCTETS
 19 .comment      00000043  00000000  00000000  000b16a2  2**0
                  CONTENTS, READONLY
 20 .debug_frame  00001930  00000000  00000000  000b16e8  2**2
                  CONTENTS, READONLY, DEBUGGING, OCTETS
 21 .debug_line_str 00000064  00000000  00000000  000b3018  2**0
                  CONTENTS, READONLY, DEBUGGING, OCTETS
 22 .debug_loclists 00000024  00000000  00000000  000b307c  2**0
                  CONTENTS, READONLY, DEBUGGING, OCTETS

Disassembly of section .text:

080000c0 <__do_global_dtors_aux>:
 80000c0:	b510      	push	{r4, lr}
 80000c2:	4c06      	ldr	r4, [pc, #24]	@ (80000dc <__do_global_dtors_aux+0x1c>)
 80000c4:	7823      	ldrb	r3, [r4, #0]
 80000c6:	2b00      	cmp	r3, #0
 80000c8:	d107      	bne.n	80000da <__do_global_dtors_aux+0x1a>
 80000ca:	4b05      	ldr	r3, [pc, #20]	@ (80000e0 <__do_global_dtors_aux+0x20>)
 80000cc:	2b00      	cmp	r3, #0
 80000ce:	d002      	beq.n	80000d6 <__do_global_dtors_aux+0x16>
 80000d0:	4804      	ldr	r0, [pc, #16]	@ (80000e4 <__do_global_dtors_aux+0x24>)
 80000d2:	e000      	b.n	80000d6 <__do_global_dtors_aux+0x16>
 80000d4:	bf00      	nop
 80000d6:	2301      	movs	r3, #1
 80000d8:	7023      	strb	r3, [r4, #0]
 80000da:	bd10      	pop	{r4, pc}
 80000dc:	200000a0 	.word	0x200000a0
 80000e0:	00000000 	.word	0x00000000
 80000e4:	080030c0 	.word	0x080030c0

080000e8 <frame_dummy>:
 80000e8:	4b04      	ldr	r3, [pc, #16]	@ (80000fc <frame_dummy+0x14>)
 80000ea:	b510      	push	{r4, lr}
 80000ec:	2b00      	cmp	r3, #0
 80000ee:	d003      	beq.n	80000f8 <frame_dummy+0x10>
 80000f0:	4903      	ldr	r1, [pc, #12]	@ (8000100 <frame_dummy+0x18>)
 80000f2:	4804      	ldr	r0, [pc, #16]	@ (8000104 <frame_dummy+0x1c>)
 80000f4:	e000      	b.n	80000f8 <frame_dummy+0x10>
 80000f6:	bf00      	nop
 80000f8:	bd10      	pop	{r4, pc}
 80000fa:	46c0      	nop			@ (mov r8, r8)
 80000fc:	00000000 	.word	0x00000000
 8000100:	200000a4 	.word	0x200000a4
 8000104:	080030c0 	.word	0x080030c0

08000108 <__udivsi3>:
 8000108:	2200      	movs	r2, #0
 800010a:	0843      	lsrs	r3, r0, #1
 800010c:	428b      	cmp	r3, r1
 800010e:	d374      	bcc.n	80001fa <__udivsi3+0xf2>
 8000110:	0903      	lsrs	r3, r0, #4
 8000112:	428b      	cmp	r3, r1
 8000114:	d35f      	bcc.n	80001d6 <__udivsi3+0xce>
 8000116:	0a03      	lsrs	r3, r0, #8
 8000118:	428b      	cmp	r3, r1
 800011a:	d344      	bcc.n	80001a6 <__udivsi3+0x9e>
 800011c:	0b03      	lsrs	r3, r0, #12
 800011e:	428b      	cmp	r3, r1
 8000120:	d328      	bcc.n	8000174 <__udivsi3+0x6c>
 8000122:	0c03      	lsrs	r3, r0, #16
 8000124:	428b      	cmp	r3, r1
 8000126:	d30d      	bcc.n	8000144 <__udivsi3+0x3c>
 8000128:	22ff      	movs	r2, #255	@ 0xff
 800012a:	0209      	lsls	r1, r1, #8
 800012c:	ba12      	rev	r2, r2
 800012e:	0c03      	lsrs	r3, r0, #16
 8000130:	428b      	cmp	r3, r1
 8000132:	d302      	bcc.n	800013a <__udivsi3+0x32>
 8000134:	1212      	asrs	r2, r2, #8
 8000136:	0209      	lsls	r1, r1, #8
 8000138:	d065      	beq.n	8000206 <__udivsi3+0xfe>
 800013a:	0b03      	lsrs	r3, r0, #12
 800013c:	428b      	cmp	r3, r1
 800013e:	d319      	bcc.n	8000174 <__udivsi3+0x6c>
 8000140:	e000      	b.n	8000144 <__udivsi3+0x3c>
 8000142:	0a09      	lsrs	r1, r1, #8
 8000144:	0bc3      	lsrs	r3, r0, #15
 8000146:	428b      	cmp	r3, r1
 8000148:	d301      	bcc.n	800014e <__udivsi3+0x46>
 800014a:	03cb      	lsls	r3, r1, #15
 800014c:	1ac0      	subs	r0, r0, r3
 800014e:	4152      	adcs	r2, r2
 8000150:	0b83      	lsrs	r3, r0, #14
 8000152:	428b      	cmp	r3, r1
 8000154:	d301      	bcc.n	800015a <__udivsi3+0x52>
 8000156:	038b      	lsls	r3, r1, #14
 8000158:	1ac0      	subs	r0, r0, r3
 800015a:	4152      	adcs	r2, r2
 800015c:	0b43      	lsrs	r3, r0, #13
 800015e:	428b      	cmp	r3, r1
 8000160:	d301      	bcc.n	8000166 <__udivsi3+0x5e>
 8000162:	034b      	lsls	r3, r1, #13
 8000164:	1ac0      	subs	r0, r0, r3
 8000166:	4152      	adcs	r2, r2
 8000168:	0b03      	lsrs	r3, r0, #12
 800016a:	428b      	cmp	r3, r1
 800016c:	d301      	bcc.n	8000172 <__udivsi3+0x6a>
 800016e:	030b      	lsls	r3, r1, #12
 8000170:	1ac0      	subs	r0, r0, r3
 8000172:	4152      	adcs	r2, r2
 8000174:	0ac3      	lsrs	r3, r0, #11
 8000176:	428b      	cmp	r3, r1
 8000178:	d301      	bcc.n	800017e <__udivsi3+0x76>
 800017a:	02cb      	lsls	r3, r1, #11
 800017c:	1ac0      	subs	r0, r0, r3
 800017e:	4152      	adcs	r2, r2
 8000180:	0a83      	lsrs	r3, r0, #10
 8000182:	428b      	cmp	r3, r1
 8000184:	d301      	bcc.n	800018a <__udivsi3+0x82>
 8000186:	028b      	lsls	r3, r1, #10
 8000188:	1ac0      	subs	r0, r0, r3
 800018a:	4152      	adcs	r2, r2
 800018c:	0a43      	lsrs	r3, r0, #9
 800018e:	428b      	cmp	r3, r1
 8000190:	d301      	bcc.n	8000196 <__udivsi3+0x8e>
 8000192:	024b      	lsls	r3, r1, #9
 8000194:	1ac0      	subs	r0, r0, r3
 8000196:	4152      	adcs	r2, r2
 8000198:	0a03      	lsrs	r3, r0, #8
 800019a:	428b      	cmp	r3, r1
 800019c:	d301      	bcc.n	80001a2 <__udivsi3+0x9a>
 800019e:	020b      	lsls	r3, r1, #8
 80001a0:	1ac0      	subs	r0, r0, r3
 80001a2:	4152      	adcs	r2, r2
 80001a4:	d2cd      	bcs.n	8000142 <__udivsi3+0x3a>
 80001a6:	09c3      	lsrs	r3, r0, #7
 80001a8:	428b      	cmp	r3, r1
 80001aa:	d301      	bcc.n	80001b0 <__udivsi3+0xa8>
 80001ac:	01cb      	lsls	r3, r1, #7
 80001ae:	1ac0      	subs	r0, r0, r3
 80001b0:	4152      	adcs	r2, r2
 80001b2:	0983      	lsrs	r3, r0, #6
 80001b4:	428b      	cmp	r3, r1
 80001b6:	d301      	bcc.n	80001bc <__udivsi3+0xb4>
 80001b8:	018b      	lsls	r3, r1, #6
 80001ba:	1ac0      	subs	r0, r0, r3
 80001bc:	4152      	adcs	r2, r2
 80001be:	0943      	lsrs	r3, r0, #5
 80001c0:	428b      	cmp	r3, r1
 80001c2:	d301      	bcc.n	80001c8 <__udivsi3+0xc0>
 80001c4:	014b      	lsls	r3, r1, #5
 80001c6:	1ac0      	subs	r0, r0, r3
 80001c8:	4152      	adcs	r2, r2
 80001ca:	0903      	lsrs	r3, r0, #4
 80001cc:	428b      	cmp	r3, r1
 80001ce:	d301      	bcc.n	80001d4 <__udivsi3+0xcc>
 80001d0:	010b      	lsls	r3, r1, #4
 80001d2:	1ac0      	subs	r0, r0, r3
 80001d4:	4152      	adcs	r2, r2
 80001d6:	08c3      	lsrs	r3, r0, #3
 80001d8:	428b      	cmp	r3, r1
 80001da:	d301      	bcc.n	80001e0 <__udivsi3+0xd8>
 80001dc:	00cb      	lsls	r3, r1, #3
 80001de:	1ac0      	subs	r0, r0, r3
 80001e0:	4152      	adcs	r2, r2
 80001e2:	0883      	lsrs	r3, r0, #2
 80001e4:	428b      	cmp	r3, r1
 80001e6:	d301      	bcc.n	80001ec <__udivsi3+0xe4>
 80001e8:	008b      	lsls	r3, r1, #2
 80001ea:	1ac0      	subs	r0, r0, r3
 80001ec:	4152      	adcs	r2, r2
 80001ee:	0843      	lsrs	r3, r0, #1
 80001f0:	428b      	cmp	r3, r1
 80001f2:	d301      	bcc.n	80001f8 <__udivsi3+0xf0>
 80001f4:	004b      	lsls	r3, r1, #1
 80001f6:	1ac0      	subs	r0, r0, r3
 80001f8:	4152      	adcs	r2, r2
 80001fa:	1a41      	subs	r1, r0, r1
 80001fc:	d200      	bcs.n	8000200 <__udivsi3+0xf8>
 80001fe:	4601      	mov	r1, r0
 8000200:	4152      	adcs	r2, r2
 8000202:	4610      	mov	r0, r2
 8000204:	4770      	bx	lr
 8000206:	e7ff      	b.n	8000208 <__udivsi3+0x100>
 8000208:	b501      	push	{r0, lr}
 800020a:	2000      	movs	r0, #0
 800020c:	f000 f8f0 	bl	80003f0 <__aeabi_idiv0>
 8000210:	bd02      	pop	{r1, pc}
 8000212:	46c0      	nop			@ (mov r8, r8)

08000214 <__aeabi_uidivmod>:
 8000214:	2900      	cmp	r1, #0
 8000216:	d0f7      	beq.n	8000208 <__udivsi3+0x100>
 8000218:	e776      	b.n	8000108 <__udivsi3>
 800021a:	4770      	bx	lr

0800021c <__divsi3>:
 800021c:	4603      	mov	r3, r0
 800021e:	430b      	orrs	r3, r1
 8000220:	d47f      	bmi.n	8000322 <__divsi3+0x106>
 8000222:	2200      	movs	r2, #0
 8000224:	0843      	lsrs	r3, r0, #1
 8000226:	428b      	cmp	r3, r1
 8000228:	d374      	bcc.n	8000314 <__divsi3+0xf8>
 800022a:	0903      	lsrs	r3, r0, #4
 800022c:	428b      	cmp	r3, r1
 800022e:	d35f      	bcc.n	80002f0 <__divsi3+0xd4>
 8000230:	0a03      	lsrs	r3, r0, #8
 8000232:	428b      	cmp	r3, r1
 8000234:	d344      	bcc.n	80002c0 <__divsi3+0xa4>
 8000236:	0b03      	lsrs	r3, r0, #12
 8000238:	428b      	cmp	r3, r1
 800023a:	d328      	bcc.n	800028e <__divsi3+0x72>
 800023c:	0c03      	lsrs	r3, r0, #16
 800023e:	428b      	cmp	r3, r1
 8000240:	d30d      	bcc.n	800025e <__divsi3+0x42>
 8000242:	22ff      	movs	r2, #255	@ 0xff
 8000244:	0209      	lsls	r1, r1, #8
 8000246:	ba12      	rev	r2, r2
 8000248:	0c03      	lsrs	r3, r0, #16
 800024a:	428b      	cmp	r3, r1
 800024c:	d302      	bcc.n	8000254 <__divsi3+0x38>
 800024e:	1212      	asrs	r2, r2, #8
 8000250:	0209      	lsls	r1, r1, #8
 8000252:	d065      	beq.n	8000320 <__divsi3+0x104>
 8000254:	0b03      	lsrs	r3, r0, #12
 8000256:	428b      	cmp	r3, r1
 8000258:	d319      	bcc.n	800028e <__divsi3+0x72>
 800025a:	e000      	b.n	800025e <__divsi3+0x42>
 800025c:	0a09      	lsrs	r1, r1, #8
 800025e:	0bc3      	lsrs	r3, r0, #15
 8000260:	428b      	cmp	r3, r1
 8000262:	d301      	bcc.n	8000268 <__divsi3+0x4c>
 8000264:	03cb      	lsls	r3, r1, #15
 8000266:	1ac0      	subs	r0, r0, r3
 8000268:	4152      	adcs	r2, r2
 800026a:	0b83      	lsrs	r3, r0, #14
 800026c:	428b      	cmp	r3, r1
 800026e:	d301      	bcc.n	8000274 <__divsi3+0x58>
 8000270:	038b      	lsls	r3, r1, #14
 8000272:	1ac0      	subs	r0, r0, r3
 8000274:	4152      	adcs	r2, r2
 8000276:	0b43      	lsrs	r3, r0, #13
 8000278:	428b      	cmp	r3, r1
 800027a:	d301      	bcc.n	8000280 <__divsi3+0x64>
 800027c:	034b      	lsls	r3, r1, #13
 800027e:	1ac0      	subs	r0, r0, r3
 8000280:	4152      	adcs	r2, r2
 8000282:	0b03      	lsrs	r3, r0, #12
 8000284:	428b      	cmp	r3, r1
 8000286:	d301      	bcc.n	800028c <__divsi3+0x70>
 8000288:	030b      	lsls	r3, r1, #12
 800028a:	1ac0      	subs	r0, r0, r3
 800028c:	4152      	adcs	r2, r2
 800028e:	0ac3      	lsrs	r3, r0, #11
 8000290:	428b      	cmp	r3, r1
 8000292:	d301      	bcc.n	8000298 <__divsi3+0x7c>
 8000294:	02cb      	lsls	r3, r1, #11
 8000296:	1ac0      	subs	r0, r0, r3
 8000298:	4152      	adcs	r2, r2
 800029a:	0a83      	lsrs	r3, r0, #10
 800029c:	428b      	cmp	r3, r1
 800029e:	d301      	bcc.n	80002a4 <__divsi3+0x88>
 80002a0:	028b      	lsls	r3, r1, #10
 80002a2:	1ac0      	subs	r0, r0, r3
 80002a4:	4152      	adcs	r2, r2
 80002a6:	0a43      	lsrs	r3, r0, #9
 80002a8:	428b      	cmp	r3, r1
 80002aa:	d301      	bcc.n	80002b0 <__divsi3+0x94>
 80002ac:	024b      	lsls	r3, r1, #9
 80002ae:	1ac0      	subs	r0, r0, r3
 80002b0:	4152      	adcs	r2, r2
 80002b2:	0a03      	lsrs	r3, r0, #8
 80002b4:	428b      	cmp	r3, r1
 80002b6:	d301      	bcc.n	80002bc <__divsi3+0xa0>
 80002b8:	020b      	lsls	r3, r1, #8
 80002ba:	1ac0      	subs	r0, r0, r3
 80002bc:	4152      	adcs	r2, r2
 80002be:	d2cd      	bcs.n	800025c <__divsi3+0x40>
 80002c0:	09c3      	lsrs	r3, r0, #7
 80002c2:	428b      	cmp	r3, r1
 80002c4:	d301      	bcc.n	80002ca <__divsi3+0xae>
 80002c6:	01cb      	lsls	r3, r1, #7
 80002c8:	1ac0      	subs	r0, r0, r3
 80002ca:	4152      	adcs	r2, r2
 80002cc:	0983      	lsrs	r3, r0, #6
 80002ce:	428b      	cmp	r3, r1
 80002d0:	d301      	bcc.n	80002d6 <__divsi3+0xba>
 80002d2:	018b      	lsls	r3, r1, #6
 80002d4:	1ac0      	subs	r0, r0, r3
 80002d6:	4152      	adcs	r2, r2
 80002d8:	0943      	lsrs	r3, r0, #5
 80002da:	428b      	cmp	r3, r1
 80002dc:	d301      	bcc.n	80002e2 <__divsi3+0xc6>
 80002de:	014b      	lsls	r3, r1, #5
 80002e0:	1ac0      	subs	r0, r0, r3
 80002e2:	4152      	adcs	r2, r2
 80002e4:	0903      	lsrs	r3, r0, #4
 80002e6:	428b      	cmp	r3, r1
 80002e8:	d301      	bcc.n	80002ee <__divsi3+0xd2>
 80002ea:	010b      	lsls	r3, r1, #4
 80002ec:	1ac0      	subs	r0, r0, r3
 80002ee:	4152      	adcs	r2, r2
 80002f0:	08c3      	lsrs	r3, r0, #3
 80002f2:	428b      	cmp	r3, r1
 80002f4:	d301      	bcc.n	80002fa <__divsi3+0xde>
 80002f6:	00cb      	lsls	r3, r1, #3
 80002f8:	1ac0      	subs	r0, r0, r3
 80002fa:	4152      	adcs	r2, r2
 80002fc:	0883      	lsrs	r3, r0, #2
 80002fe:	428b      	cmp	r3, r1
 8000300:	d301      	bcc.n	8000306 <__divsi3+0xea>
 8000302:	008b      	lsls	r3, r1, #2
 8000304:	1ac0      	subs	r0, r0, r3
 8000306:	4152      	adcs	r2, r2
 8000308:	0843      	lsrs	r3, r0, #1
 800030a:	428b      	cmp	r3, r1
 800030c:	d301      	bcc.n	8000312 <__divsi3+0xf6>
 800030e:	004b      	lsls	r3, r1, #1
 8000310:	1ac0      	subs	r0, r0, r3
 8000312:	4152      	adcs	r2, r2
 8000314:	1a41      	subs	r1, r0, r1
 8000316:	d200      	bcs.n	800031a <__divsi3+0xfe>
 8000318:	4601      	mov	r1, r0
 800031a:	4152      	adcs	r2, r2
 800031c:	4610      	mov	r0, r2
 800031e:	4770      	bx	lr
 8000320:	e05d      	b.n	80003de <__divsi3+0x1c2>
 8000322:	0fca      	lsrs	r2, r1, #31
 8000324:	d000      	beq.n	8000328 <__divsi3+0x10c>
 8000326:	4249      	negs	r1, r1
 8000328:	1003      	asrs	r3, r0, #32
 800032a:	d300      	bcc.n	800032e <__divsi3+0x112>
 800032c:	4240      	negs	r0, r0
 800032e:	4053      	eors	r3, r2
 8000330:	2200      	movs	r2, #0
 8000332:	469c      	mov	ip, r3
 8000334:	0903      	lsrs	r3, r0, #4
 8000336:	428b      	cmp	r3, r1
 8000338:	d32d      	bcc.n	8000396 <__divsi3+0x17a>
 800033a:	0a03      	lsrs	r3, r0, #8
 800033c:	428b      	cmp	r3, r1
 800033e:	d312      	bcc.n	8000366 <__divsi3+0x14a>
 8000340:	22fc      	movs	r2, #252	@ 0xfc
 8000342:	0189      	lsls	r1, r1, #6
 8000344:	ba12      	rev	r2, r2
 8000346:	0a03      	lsrs	r3, r0, #8
 8000348:	428b      	cmp	r3, r1
 800034a:	d30c      	bcc.n	8000366 <__divsi3+0x14a>
 800034c:	0189      	lsls	r1, r1, #6
 800034e:	1192      	asrs	r2, r2, #6
 8000350:	428b      	cmp	r3, r1
 8000352:	d308      	bcc.n	8000366 <__divsi3+0x14a>
 8000354:	0189      	lsls	r1, r1, #6
 8000356:	1192      	asrs	r2, r2, #6
 8000358:	428b      	cmp	r3, r1
 800035a:	d304      	bcc.n	8000366 <__divsi3+0x14a>
 800035c:	0189      	lsls	r1, r1, #6
 800035e:	d03a      	beq.n	80003d6 <__divsi3+0x1ba>
 8000360:	1192      	asrs	r2, r2, #6
 8000362:	e000      	b.n	8000366 <__divsi3+0x14a>
 8000364:	0989      	lsrs	r1, r1, #6
 8000366:	09c3      	lsrs	r3, r0, #7
 8000368:	428b      	cmp	r3, r1
 800036a:	d301      	bcc.n	8000370 <__divsi3+0x154>
 800036c:	01cb      	lsls	r3, r1, #7
 800036e:	1ac0      	subs	r0, r0, r3
 8000370:	4152      	adcs	r2, r2
 8000372:	0983      	lsrs	r3, r0, #6
 8000374:	428b      	cmp	r3, r1
 8000376:	d301      	bcc.n	800037c <__divsi3+0x160>
 8000378:	018b      	lsls	r3, r1, #6
 800037a:	1ac0      	subs	r0, r0, r3
 800037c:	4152      	adcs	r2, r2
 800037e:	0943      	lsrs	r3, r0, #5
 8000380:	428b      	cmp	r3, r1
 8000382:	d301      	bcc.n	8000388 <__divsi3+0x16c>
 8000384:	014b      	lsls	r3, r1, #5
 8000386:	1ac0      	subs	r0, r0, r3
 8000388:	4152      	adcs	r2, r2
 800038a:	0903      	lsrs	r3, r0, #4
 800038c:	428b      	cmp	r3, r1
 800038e:	d301      	bcc.n	8000394 <__divsi3+0x178>
 8000390:	010b      	lsls	r3, r1, #4
 8000392:	1ac0      	subs	r0, r0, r3
 8000394:	4152      	adcs	r2, r2
 8000396:	08c3      	lsrs	r3, r0, #3
 8000398:	428b      	cmp	r3, r1
 800039a:	d301      	bcc.n	80003a0 <__divsi3+0x184>
 800039c:	00cb      	lsls	r3, r1, #3
 800039e:	1ac0      	subs	r0, r0, r3
 80003a0:	4152      	adcs	r2, r2
 80003a2:	0883      	lsrs	r3, r0, #2
 80003a4:	428b      	cmp	r3, r1
 80003a6:	d301      	bcc.n	80003ac <__divsi3+0x190>
 80003a8:	008b      	lsls	r3, r1, #2
 80003aa:	1ac0      	subs	r0, r0, r3
 80003ac:	4152      	adcs	r2, r2
 80003ae:	d2d9      	bcs.n	8000364 <__divsi3+0x148>
 80003b0:	0843      	lsrs	r3, r0, #1
 80003b2:	428b      	cmp	r3, r1
 80003b4:	d301      	bcc.n	80003ba <__divsi3+0x19e>
 80003b6:	004b      	lsls	r3, r1, #1
 80003b8:	1ac0      	subs	r0, r0, r3
 80003ba:	4152      	adcs	r2, r2
 80003bc:	1a41      	subs	r1, r0, r1
 80003be:	d200      	bcs.n	80003c2 <__divsi3+0x1a6>
 80003c0:	4601      	mov	r1, r0
 80003c2:	4663      	mov	r3, ip
 80003c4:	4152      	adcs	r2, r2
 80003c6:	105b      	asrs	r3, r3, #1
 80003c8:	4610      	mov	r0, r2
 80003ca:	d301      	bcc.n	80003d0 <__divsi3+0x1b4>
 80003cc:	4240      	negs	r0, r0
 80003ce:	2b00      	cmp	r3, #0
 80003d0:	d500      	bpl.n	80003d4 <__divsi3+0x1b8>
 80003d2:	4249      	negs	r1, r1
 80003d4:	4770      	bx	lr
 80003d6:	4663      	mov	r3, ip
 80003d8:	105b      	asrs	r3, r3, #1
 80003da:	d300      	bcc.n	80003de <__divsi3+0x1c2>
 80003dc:	4240      	negs	r0, r0
 80003de:	b501      	push	{r0, lr}
 80003e0:	2000      	movs	r0, #0
 80003e2:	f000 f805 	bl	80003f0 <__aeabi_idiv0>
 80003e6:	bd02      	pop	{r1, pc}

080003e8 <__aeabi_idivmod>:
 80003e8:	2900      	cmp	r1, #0
 80003ea:	d0f8      	beq.n	80003de <__divsi3+0x1c2>
 80003ec:	e716      	b.n	800021c <__divsi3>
 80003ee:	4770      	bx	lr

080003f0 <__aeabi_idiv0>:
 80003f0:	4770      	bx	lr
 80003f2:	46c0      	nop			@ (mov r8, r8)

080003f4 <__ffssi2>:
 80003f4:	b510      	push	{r4, lr}
 80003f6:	2800      	cmp	r0, #0
 80003f8:	d003      	beq.n	8000402 <__ffssi2+0xe>
 80003fa:	f000 ff0b 	bl	8001214 <__ctzsi2>
 80003fe:	3001      	adds	r0, #1
 8000400:	bd10      	pop	{r4, pc}
 8000402:	2000      	movs	r0, #0
 8000404:	e7fc      	b.n	8000400 <__ffssi2+0xc>
 8000406:	46c0      	nop			@ (mov r8, r8)

08000408 <__aeabi_dadd>:
 8000408:	b5f0      	push	{r4, r5, r6, r7, lr}
 800040a:	4657      	mov	r7, sl
 800040c:	464e      	mov	r6, r9
 800040e:	4645      	mov	r5, r8
 8000410:	46de      	mov	lr, fp
 8000412:	b5e0      	push	{r5, r6, r7, lr}
 8000414:	b083      	sub	sp, #12
 8000416:	9000      	str	r0, [sp, #0]
 8000418:	9101      	str	r1, [sp, #4]
 800041a:	030c      	lsls	r4, r1, #12
 800041c:	004f      	lsls	r7, r1, #1
 800041e:	0fce      	lsrs	r6, r1, #31
 8000420:	0a61      	lsrs	r1, r4, #9
 8000422:	9c00      	ldr	r4, [sp, #0]
 8000424:	031d      	lsls	r5, r3, #12
 8000426:	0f64      	lsrs	r4, r4, #29
 8000428:	430c      	orrs	r4, r1
 800042a:	9900      	ldr	r1, [sp, #0]
 800042c:	9200      	str	r2, [sp, #0]
 800042e:	9301      	str	r3, [sp, #4]
 8000430:	00c8      	lsls	r0, r1, #3
 8000432:	0059      	lsls	r1, r3, #1
 8000434:	0d4b      	lsrs	r3, r1, #21
 8000436:	4699      	mov	r9, r3
 8000438:	9a00      	ldr	r2, [sp, #0]
 800043a:	9b01      	ldr	r3, [sp, #4]
 800043c:	0a6d      	lsrs	r5, r5, #9
 800043e:	0fd9      	lsrs	r1, r3, #31
 8000440:	0f53      	lsrs	r3, r2, #29
 8000442:	432b      	orrs	r3, r5
 8000444:	469a      	mov	sl, r3
 8000446:	9b00      	ldr	r3, [sp, #0]
 8000448:	0d7f      	lsrs	r7, r7, #21
 800044a:	00da      	lsls	r2, r3, #3
 800044c:	4694      	mov	ip, r2
 800044e:	464a      	mov	r2, r9
 8000450:	46b0      	mov	r8, r6
 8000452:	1aba      	subs	r2, r7, r2
 8000454:	428e      	cmp	r6, r1
 8000456:	d100      	bne.n	800045a <__aeabi_dadd+0x52>
 8000458:	e0b0      	b.n	80005bc <__aeabi_dadd+0x1b4>
 800045a:	2a00      	cmp	r2, #0
 800045c:	dc00      	bgt.n	8000460 <__aeabi_dadd+0x58>
 800045e:	e078      	b.n	8000552 <__aeabi_dadd+0x14a>
 8000460:	4649      	mov	r1, r9
 8000462:	2900      	cmp	r1, #0
 8000464:	d100      	bne.n	8000468 <__aeabi_dadd+0x60>
 8000466:	e0e9      	b.n	800063c <__aeabi_dadd+0x234>
 8000468:	49c9      	ldr	r1, [pc, #804]	@ (8000790 <__aeabi_dadd+0x388>)
 800046a:	428f      	cmp	r7, r1
 800046c:	d100      	bne.n	8000470 <__aeabi_dadd+0x68>
 800046e:	e195      	b.n	800079c <__aeabi_dadd+0x394>
 8000470:	2501      	movs	r5, #1
 8000472:	2a38      	cmp	r2, #56	@ 0x38
 8000474:	dc16      	bgt.n	80004a4 <__aeabi_dadd+0x9c>
 8000476:	2180      	movs	r1, #128	@ 0x80
 8000478:	4653      	mov	r3, sl
 800047a:	0409      	lsls	r1, r1, #16
 800047c:	430b      	orrs	r3, r1
 800047e:	469a      	mov	sl, r3
 8000480:	2a1f      	cmp	r2, #31
 8000482:	dd00      	ble.n	8000486 <__aeabi_dadd+0x7e>
 8000484:	e1e7      	b.n	8000856 <__aeabi_dadd+0x44e>
 8000486:	2120      	movs	r1, #32
 8000488:	4655      	mov	r5, sl
 800048a:	1a8b      	subs	r3, r1, r2
 800048c:	4661      	mov	r1, ip
 800048e:	409d      	lsls	r5, r3
 8000490:	40d1      	lsrs	r1, r2
 8000492:	430d      	orrs	r5, r1
 8000494:	4661      	mov	r1, ip
 8000496:	4099      	lsls	r1, r3
 8000498:	1e4b      	subs	r3, r1, #1
 800049a:	4199      	sbcs	r1, r3
 800049c:	4653      	mov	r3, sl
 800049e:	40d3      	lsrs	r3, r2
 80004a0:	430d      	orrs	r5, r1
 80004a2:	1ae4      	subs	r4, r4, r3
 80004a4:	1b45      	subs	r5, r0, r5
 80004a6:	42a8      	cmp	r0, r5
 80004a8:	4180      	sbcs	r0, r0
 80004aa:	4240      	negs	r0, r0
 80004ac:	1a24      	subs	r4, r4, r0
 80004ae:	0223      	lsls	r3, r4, #8
 80004b0:	d400      	bmi.n	80004b4 <__aeabi_dadd+0xac>
 80004b2:	e10f      	b.n	80006d4 <__aeabi_dadd+0x2cc>
 80004b4:	0264      	lsls	r4, r4, #9
 80004b6:	0a64      	lsrs	r4, r4, #9
 80004b8:	2c00      	cmp	r4, #0
 80004ba:	d100      	bne.n	80004be <__aeabi_dadd+0xb6>
 80004bc:	e139      	b.n	8000732 <__aeabi_dadd+0x32a>
 80004be:	0020      	movs	r0, r4
 80004c0:	f000 fe8a 	bl	80011d8 <__clzsi2>
 80004c4:	0003      	movs	r3, r0
 80004c6:	3b08      	subs	r3, #8
 80004c8:	2120      	movs	r1, #32
 80004ca:	0028      	movs	r0, r5
 80004cc:	1aca      	subs	r2, r1, r3
 80004ce:	40d0      	lsrs	r0, r2
 80004d0:	409c      	lsls	r4, r3
 80004d2:	0002      	movs	r2, r0
 80004d4:	409d      	lsls	r5, r3
 80004d6:	4322      	orrs	r2, r4
 80004d8:	429f      	cmp	r7, r3
 80004da:	dd00      	ble.n	80004de <__aeabi_dadd+0xd6>
 80004dc:	e173      	b.n	80007c6 <__aeabi_dadd+0x3be>
 80004de:	1bd8      	subs	r0, r3, r7
 80004e0:	3001      	adds	r0, #1
 80004e2:	1a09      	subs	r1, r1, r0
 80004e4:	002c      	movs	r4, r5
 80004e6:	408d      	lsls	r5, r1
 80004e8:	40c4      	lsrs	r4, r0
 80004ea:	1e6b      	subs	r3, r5, #1
 80004ec:	419d      	sbcs	r5, r3
 80004ee:	0013      	movs	r3, r2
 80004f0:	40c2      	lsrs	r2, r0
 80004f2:	408b      	lsls	r3, r1
 80004f4:	4325      	orrs	r5, r4
 80004f6:	2700      	movs	r7, #0
 80004f8:	0014      	movs	r4, r2
 80004fa:	431d      	orrs	r5, r3
 80004fc:	076b      	lsls	r3, r5, #29
 80004fe:	d009      	beq.n	8000514 <__aeabi_dadd+0x10c>
 8000500:	230f      	movs	r3, #15
 8000502:	402b      	ands	r3, r5
 8000504:	2b04      	cmp	r3, #4
 8000506:	d005      	beq.n	8000514 <__aeabi_dadd+0x10c>
 8000508:	1d2b      	adds	r3, r5, #4
 800050a:	42ab      	cmp	r3, r5
 800050c:	41ad      	sbcs	r5, r5
 800050e:	426d      	negs	r5, r5
 8000510:	1964      	adds	r4, r4, r5
 8000512:	001d      	movs	r5, r3
 8000514:	0223      	lsls	r3, r4, #8
 8000516:	d400      	bmi.n	800051a <__aeabi_dadd+0x112>
 8000518:	e12d      	b.n	8000776 <__aeabi_dadd+0x36e>
 800051a:	4a9d      	ldr	r2, [pc, #628]	@ (8000790 <__aeabi_dadd+0x388>)
 800051c:	3701      	adds	r7, #1
 800051e:	4297      	cmp	r7, r2
 8000520:	d100      	bne.n	8000524 <__aeabi_dadd+0x11c>
 8000522:	e0d3      	b.n	80006cc <__aeabi_dadd+0x2c4>
 8000524:	4646      	mov	r6, r8
 8000526:	499b      	ldr	r1, [pc, #620]	@ (8000794 <__aeabi_dadd+0x38c>)
 8000528:	08ed      	lsrs	r5, r5, #3
 800052a:	4021      	ands	r1, r4
 800052c:	074a      	lsls	r2, r1, #29
 800052e:	432a      	orrs	r2, r5
 8000530:	057c      	lsls	r4, r7, #21
 8000532:	024d      	lsls	r5, r1, #9
 8000534:	0b2d      	lsrs	r5, r5, #12
 8000536:	0d64      	lsrs	r4, r4, #21
 8000538:	0524      	lsls	r4, r4, #20
 800053a:	432c      	orrs	r4, r5
 800053c:	07f6      	lsls	r6, r6, #31
 800053e:	4334      	orrs	r4, r6
 8000540:	0010      	movs	r0, r2
 8000542:	0021      	movs	r1, r4
 8000544:	b003      	add	sp, #12
 8000546:	bcf0      	pop	{r4, r5, r6, r7}
 8000548:	46bb      	mov	fp, r7
 800054a:	46b2      	mov	sl, r6
 800054c:	46a9      	mov	r9, r5
 800054e:	46a0      	mov	r8, r4
 8000550:	bdf0      	pop	{r4, r5, r6, r7, pc}
 8000552:	2a00      	cmp	r2, #0
 8000554:	d100      	bne.n	8000558 <__aeabi_dadd+0x150>
 8000556:	e084      	b.n	8000662 <__aeabi_dadd+0x25a>
 8000558:	464a      	mov	r2, r9
 800055a:	1bd2      	subs	r2, r2, r7
 800055c:	2f00      	cmp	r7, #0
 800055e:	d000      	beq.n	8000562 <__aeabi_dadd+0x15a>
 8000560:	e16d      	b.n	800083e <__aeabi_dadd+0x436>
 8000562:	0025      	movs	r5, r4
 8000564:	4305      	orrs	r5, r0
 8000566:	d100      	bne.n	800056a <__aeabi_dadd+0x162>
 8000568:	e127      	b.n	80007ba <__aeabi_dadd+0x3b2>
 800056a:	1e56      	subs	r6, r2, #1
 800056c:	2a01      	cmp	r2, #1
 800056e:	d100      	bne.n	8000572 <__aeabi_dadd+0x16a>
 8000570:	e23b      	b.n	80009ea <__aeabi_dadd+0x5e2>
 8000572:	4d87      	ldr	r5, [pc, #540]	@ (8000790 <__aeabi_dadd+0x388>)
 8000574:	42aa      	cmp	r2, r5
 8000576:	d100      	bne.n	800057a <__aeabi_dadd+0x172>
 8000578:	e26a      	b.n	8000a50 <__aeabi_dadd+0x648>
 800057a:	2501      	movs	r5, #1
 800057c:	2e38      	cmp	r6, #56	@ 0x38
 800057e:	dc12      	bgt.n	80005a6 <__aeabi_dadd+0x19e>
 8000580:	0032      	movs	r2, r6
 8000582:	2a1f      	cmp	r2, #31
 8000584:	dd00      	ble.n	8000588 <__aeabi_dadd+0x180>
 8000586:	e1f8      	b.n	800097a <__aeabi_dadd+0x572>
 8000588:	2620      	movs	r6, #32
 800058a:	0025      	movs	r5, r4
 800058c:	1ab6      	subs	r6, r6, r2
 800058e:	0007      	movs	r7, r0
 8000590:	4653      	mov	r3, sl
 8000592:	40b0      	lsls	r0, r6
 8000594:	40d4      	lsrs	r4, r2
 8000596:	40b5      	lsls	r5, r6
 8000598:	40d7      	lsrs	r7, r2
 800059a:	1e46      	subs	r6, r0, #1
 800059c:	41b0      	sbcs	r0, r6
 800059e:	1b1b      	subs	r3, r3, r4
 80005a0:	469a      	mov	sl, r3
 80005a2:	433d      	orrs	r5, r7
 80005a4:	4305      	orrs	r5, r0
 80005a6:	4662      	mov	r2, ip
 80005a8:	1b55      	subs	r5, r2, r5
 80005aa:	45ac      	cmp	ip, r5
 80005ac:	4192      	sbcs	r2, r2
 80005ae:	4653      	mov	r3, sl
 80005b0:	4252      	negs	r2, r2
 80005b2:	000e      	movs	r6, r1
 80005b4:	464f      	mov	r7, r9
 80005b6:	4688      	mov	r8, r1
 80005b8:	1a9c      	subs	r4, r3, r2
 80005ba:	e778      	b.n	80004ae <__aeabi_dadd+0xa6>
 80005bc:	2a00      	cmp	r2, #0
 80005be:	dc00      	bgt.n	80005c2 <__aeabi_dadd+0x1ba>
 80005c0:	e08e      	b.n	80006e0 <__aeabi_dadd+0x2d8>
 80005c2:	4649      	mov	r1, r9
 80005c4:	2900      	cmp	r1, #0
 80005c6:	d175      	bne.n	80006b4 <__aeabi_dadd+0x2ac>
 80005c8:	4661      	mov	r1, ip
 80005ca:	4653      	mov	r3, sl
 80005cc:	4319      	orrs	r1, r3
 80005ce:	d100      	bne.n	80005d2 <__aeabi_dadd+0x1ca>
 80005d0:	e0f6      	b.n	80007c0 <__aeabi_dadd+0x3b8>
 80005d2:	1e51      	subs	r1, r2, #1
 80005d4:	2a01      	cmp	r2, #1
 80005d6:	d100      	bne.n	80005da <__aeabi_dadd+0x1d2>
 80005d8:	e191      	b.n	80008fe <__aeabi_dadd+0x4f6>
 80005da:	4d6d      	ldr	r5, [pc, #436]	@ (8000790 <__aeabi_dadd+0x388>)
 80005dc:	42aa      	cmp	r2, r5
 80005de:	d100      	bne.n	80005e2 <__aeabi_dadd+0x1da>
 80005e0:	e0dc      	b.n	800079c <__aeabi_dadd+0x394>
 80005e2:	2501      	movs	r5, #1
 80005e4:	2938      	cmp	r1, #56	@ 0x38
 80005e6:	dc14      	bgt.n	8000612 <__aeabi_dadd+0x20a>
 80005e8:	000a      	movs	r2, r1
 80005ea:	2a1f      	cmp	r2, #31
 80005ec:	dd00      	ble.n	80005f0 <__aeabi_dadd+0x1e8>
 80005ee:	e1a2      	b.n	8000936 <__aeabi_dadd+0x52e>
 80005f0:	2120      	movs	r1, #32
 80005f2:	4653      	mov	r3, sl
 80005f4:	1a89      	subs	r1, r1, r2
 80005f6:	408b      	lsls	r3, r1
 80005f8:	001d      	movs	r5, r3
 80005fa:	4663      	mov	r3, ip
 80005fc:	40d3      	lsrs	r3, r2
 80005fe:	431d      	orrs	r5, r3
 8000600:	4663      	mov	r3, ip
 8000602:	408b      	lsls	r3, r1
 8000604:	0019      	movs	r1, r3
 8000606:	1e4b      	subs	r3, r1, #1
 8000608:	4199      	sbcs	r1, r3
 800060a:	4653      	mov	r3, sl
 800060c:	40d3      	lsrs	r3, r2
 800060e:	430d      	orrs	r5, r1
 8000610:	18e4      	adds	r4, r4, r3
 8000612:	182d      	adds	r5, r5, r0
 8000614:	4285      	cmp	r5, r0
 8000616:	4180      	sbcs	r0, r0
 8000618:	4240      	negs	r0, r0
 800061a:	1824      	adds	r4, r4, r0
 800061c:	0223      	lsls	r3, r4, #8
 800061e:	d559      	bpl.n	80006d4 <__aeabi_dadd+0x2cc>
 8000620:	4b5b      	ldr	r3, [pc, #364]	@ (8000790 <__aeabi_dadd+0x388>)
 8000622:	3701      	adds	r7, #1
 8000624:	429f      	cmp	r7, r3
 8000626:	d051      	beq.n	80006cc <__aeabi_dadd+0x2c4>
 8000628:	2101      	movs	r1, #1
 800062a:	4b5a      	ldr	r3, [pc, #360]	@ (8000794 <__aeabi_dadd+0x38c>)
 800062c:	086a      	lsrs	r2, r5, #1
 800062e:	401c      	ands	r4, r3
 8000630:	4029      	ands	r1, r5
 8000632:	430a      	orrs	r2, r1
 8000634:	07e5      	lsls	r5, r4, #31
 8000636:	4315      	orrs	r5, r2
 8000638:	0864      	lsrs	r4, r4, #1
 800063a:	e75f      	b.n	80004fc <__aeabi_dadd+0xf4>
 800063c:	4661      	mov	r1, ip
 800063e:	4653      	mov	r3, sl
 8000640:	4319      	orrs	r1, r3
 8000642:	d100      	bne.n	8000646 <__aeabi_dadd+0x23e>
 8000644:	e0bc      	b.n	80007c0 <__aeabi_dadd+0x3b8>
 8000646:	1e51      	subs	r1, r2, #1
 8000648:	2a01      	cmp	r2, #1
 800064a:	d100      	bne.n	800064e <__aeabi_dadd+0x246>
 800064c:	e164      	b.n	8000918 <__aeabi_dadd+0x510>
 800064e:	4d50      	ldr	r5, [pc, #320]	@ (8000790 <__aeabi_dadd+0x388>)
 8000650:	42aa      	cmp	r2, r5
 8000652:	d100      	bne.n	8000656 <__aeabi_dadd+0x24e>
 8000654:	e16a      	b.n	800092c <__aeabi_dadd+0x524>
 8000656:	2501      	movs	r5, #1
 8000658:	2938      	cmp	r1, #56	@ 0x38
 800065a:	dd00      	ble.n	800065e <__aeabi_dadd+0x256>
 800065c:	e722      	b.n	80004a4 <__aeabi_dadd+0x9c>
 800065e:	000a      	movs	r2, r1
 8000660:	e70e      	b.n	8000480 <__aeabi_dadd+0x78>
 8000662:	4a4d      	ldr	r2, [pc, #308]	@ (8000798 <__aeabi_dadd+0x390>)
 8000664:	1c7d      	adds	r5, r7, #1
 8000666:	4215      	tst	r5, r2
 8000668:	d000      	beq.n	800066c <__aeabi_dadd+0x264>
 800066a:	e0d0      	b.n	800080e <__aeabi_dadd+0x406>
 800066c:	0025      	movs	r5, r4
 800066e:	4662      	mov	r2, ip
 8000670:	4653      	mov	r3, sl
 8000672:	4305      	orrs	r5, r0
 8000674:	431a      	orrs	r2, r3
 8000676:	2f00      	cmp	r7, #0
 8000678:	d000      	beq.n	800067c <__aeabi_dadd+0x274>
 800067a:	e137      	b.n	80008ec <__aeabi_dadd+0x4e4>
 800067c:	2d00      	cmp	r5, #0
 800067e:	d100      	bne.n	8000682 <__aeabi_dadd+0x27a>
 8000680:	e1a8      	b.n	80009d4 <__aeabi_dadd+0x5cc>
 8000682:	2a00      	cmp	r2, #0
 8000684:	d100      	bne.n	8000688 <__aeabi_dadd+0x280>
 8000686:	e16a      	b.n	800095e <__aeabi_dadd+0x556>
 8000688:	4663      	mov	r3, ip
 800068a:	1ac5      	subs	r5, r0, r3
 800068c:	4653      	mov	r3, sl
 800068e:	1ae2      	subs	r2, r4, r3
 8000690:	42a8      	cmp	r0, r5
 8000692:	419b      	sbcs	r3, r3
 8000694:	425b      	negs	r3, r3
 8000696:	1ad3      	subs	r3, r2, r3
 8000698:	021a      	lsls	r2, r3, #8
 800069a:	d400      	bmi.n	800069e <__aeabi_dadd+0x296>
 800069c:	e203      	b.n	8000aa6 <__aeabi_dadd+0x69e>
 800069e:	4663      	mov	r3, ip
 80006a0:	1a1d      	subs	r5, r3, r0
 80006a2:	45ac      	cmp	ip, r5
 80006a4:	4192      	sbcs	r2, r2
 80006a6:	4653      	mov	r3, sl
 80006a8:	4252      	negs	r2, r2
 80006aa:	1b1c      	subs	r4, r3, r4
 80006ac:	000e      	movs	r6, r1
 80006ae:	4688      	mov	r8, r1
 80006b0:	1aa4      	subs	r4, r4, r2
 80006b2:	e723      	b.n	80004fc <__aeabi_dadd+0xf4>
 80006b4:	4936      	ldr	r1, [pc, #216]	@ (8000790 <__aeabi_dadd+0x388>)
 80006b6:	428f      	cmp	r7, r1
 80006b8:	d070      	beq.n	800079c <__aeabi_dadd+0x394>
 80006ba:	2501      	movs	r5, #1
 80006bc:	2a38      	cmp	r2, #56	@ 0x38
 80006be:	dca8      	bgt.n	8000612 <__aeabi_dadd+0x20a>
 80006c0:	2180      	movs	r1, #128	@ 0x80
 80006c2:	4653      	mov	r3, sl
 80006c4:	0409      	lsls	r1, r1, #16
 80006c6:	430b      	orrs	r3, r1
 80006c8:	469a      	mov	sl, r3
 80006ca:	e78e      	b.n	80005ea <__aeabi_dadd+0x1e2>
 80006cc:	003c      	movs	r4, r7
 80006ce:	2500      	movs	r5, #0
 80006d0:	2200      	movs	r2, #0
 80006d2:	e731      	b.n	8000538 <__aeabi_dadd+0x130>
 80006d4:	2307      	movs	r3, #7
 80006d6:	402b      	ands	r3, r5
 80006d8:	2b00      	cmp	r3, #0
 80006da:	d000      	beq.n	80006de <__aeabi_dadd+0x2d6>
 80006dc:	e710      	b.n	8000500 <__aeabi_dadd+0xf8>
 80006de:	e093      	b.n	8000808 <__aeabi_dadd+0x400>
 80006e0:	2a00      	cmp	r2, #0
 80006e2:	d074      	beq.n	80007ce <__aeabi_dadd+0x3c6>
 80006e4:	464a      	mov	r2, r9
 80006e6:	1bd2      	subs	r2, r2, r7
 80006e8:	2f00      	cmp	r7, #0
 80006ea:	d100      	bne.n	80006ee <__aeabi_dadd+0x2e6>
 80006ec:	e0c7      	b.n	800087e <__aeabi_dadd+0x476>
 80006ee:	4928      	ldr	r1, [pc, #160]	@ (8000790 <__aeabi_dadd+0x388>)
 80006f0:	4589      	cmp	r9, r1
 80006f2:	d100      	bne.n	80006f6 <__aeabi_dadd+0x2ee>
 80006f4:	e185      	b.n	8000a02 <__aeabi_dadd+0x5fa>
 80006f6:	2501      	movs	r5, #1
 80006f8:	2a38      	cmp	r2, #56	@ 0x38
 80006fa:	dc12      	bgt.n	8000722 <__aeabi_dadd+0x31a>
 80006fc:	2180      	movs	r1, #128	@ 0x80
 80006fe:	0409      	lsls	r1, r1, #16
 8000700:	430c      	orrs	r4, r1
 8000702:	2a1f      	cmp	r2, #31
 8000704:	dd00      	ble.n	8000708 <__aeabi_dadd+0x300>
 8000706:	e1ab      	b.n	8000a60 <__aeabi_dadd+0x658>
 8000708:	2120      	movs	r1, #32
 800070a:	0025      	movs	r5, r4
 800070c:	1a89      	subs	r1, r1, r2
 800070e:	0007      	movs	r7, r0
 8000710:	4088      	lsls	r0, r1
 8000712:	408d      	lsls	r5, r1
 8000714:	40d7      	lsrs	r7, r2
 8000716:	1e41      	subs	r1, r0, #1
 8000718:	4188      	sbcs	r0, r1
 800071a:	40d4      	lsrs	r4, r2
 800071c:	433d      	orrs	r5, r7
 800071e:	4305      	orrs	r5, r0
 8000720:	44a2      	add	sl, r4
 8000722:	4465      	add	r5, ip
 8000724:	4565      	cmp	r5, ip
 8000726:	4192      	sbcs	r2, r2
 8000728:	4252      	negs	r2, r2
 800072a:	4452      	add	r2, sl
 800072c:	0014      	movs	r4, r2
 800072e:	464f      	mov	r7, r9
 8000730:	e774      	b.n	800061c <__aeabi_dadd+0x214>
 8000732:	0028      	movs	r0, r5
 8000734:	f000 fd50 	bl	80011d8 <__clzsi2>
 8000738:	0003      	movs	r3, r0
 800073a:	3318      	adds	r3, #24
 800073c:	2b1f      	cmp	r3, #31
 800073e:	dc00      	bgt.n	8000742 <__aeabi_dadd+0x33a>
 8000740:	e6c2      	b.n	80004c8 <__aeabi_dadd+0xc0>
 8000742:	002a      	movs	r2, r5
 8000744:	3808      	subs	r0, #8
 8000746:	4082      	lsls	r2, r0
 8000748:	429f      	cmp	r7, r3
 800074a:	dd00      	ble.n	800074e <__aeabi_dadd+0x346>
 800074c:	e0a9      	b.n	80008a2 <__aeabi_dadd+0x49a>
 800074e:	1bdb      	subs	r3, r3, r7
 8000750:	1c58      	adds	r0, r3, #1
 8000752:	281f      	cmp	r0, #31
 8000754:	dc00      	bgt.n	8000758 <__aeabi_dadd+0x350>
 8000756:	e1ac      	b.n	8000ab2 <__aeabi_dadd+0x6aa>
 8000758:	0015      	movs	r5, r2
 800075a:	3b1f      	subs	r3, #31
 800075c:	40dd      	lsrs	r5, r3
 800075e:	2820      	cmp	r0, #32
 8000760:	d005      	beq.n	800076e <__aeabi_dadd+0x366>
 8000762:	2340      	movs	r3, #64	@ 0x40
 8000764:	1a1b      	subs	r3, r3, r0
 8000766:	409a      	lsls	r2, r3
 8000768:	1e53      	subs	r3, r2, #1
 800076a:	419a      	sbcs	r2, r3
 800076c:	4315      	orrs	r5, r2
 800076e:	2307      	movs	r3, #7
 8000770:	2700      	movs	r7, #0
 8000772:	402b      	ands	r3, r5
 8000774:	e7b0      	b.n	80006d8 <__aeabi_dadd+0x2d0>
 8000776:	08ed      	lsrs	r5, r5, #3
 8000778:	4b05      	ldr	r3, [pc, #20]	@ (8000790 <__aeabi_dadd+0x388>)
 800077a:	0762      	lsls	r2, r4, #29
 800077c:	432a      	orrs	r2, r5
 800077e:	08e4      	lsrs	r4, r4, #3
 8000780:	429f      	cmp	r7, r3
 8000782:	d00f      	beq.n	80007a4 <__aeabi_dadd+0x39c>
 8000784:	0324      	lsls	r4, r4, #12
 8000786:	0b25      	lsrs	r5, r4, #12
 8000788:	057c      	lsls	r4, r7, #21
 800078a:	0d64      	lsrs	r4, r4, #21
 800078c:	e6d4      	b.n	8000538 <__aeabi_dadd+0x130>
 800078e:	46c0      	nop			@ (mov r8, r8)
 8000790:	000007ff 	.word	0x000007ff
 8000794:	ff7fffff 	.word	0xff7fffff
 8000798:	000007fe 	.word	0x000007fe
 800079c:	08c0      	lsrs	r0, r0, #3
 800079e:	0762      	lsls	r2, r4, #29
 80007a0:	4302      	orrs	r2, r0
 80007a2:	08e4      	lsrs	r4, r4, #3
 80007a4:	0013      	movs	r3, r2
 80007a6:	4323      	orrs	r3, r4
 80007a8:	d100      	bne.n	80007ac <__aeabi_dadd+0x3a4>
 80007aa:	e186      	b.n	8000aba <__aeabi_dadd+0x6b2>
 80007ac:	2580      	movs	r5, #128	@ 0x80
 80007ae:	032d      	lsls	r5, r5, #12
 80007b0:	4325      	orrs	r5, r4
 80007b2:	032d      	lsls	r5, r5, #12
 80007b4:	4cc3      	ldr	r4, [pc, #780]	@ (8000ac4 <__aeabi_dadd+0x6bc>)
 80007b6:	0b2d      	lsrs	r5, r5, #12
 80007b8:	e6be      	b.n	8000538 <__aeabi_dadd+0x130>
 80007ba:	4660      	mov	r0, ip
 80007bc:	4654      	mov	r4, sl
 80007be:	000e      	movs	r6, r1
 80007c0:	0017      	movs	r7, r2
 80007c2:	08c5      	lsrs	r5, r0, #3
 80007c4:	e7d8      	b.n	8000778 <__aeabi_dadd+0x370>
 80007c6:	4cc0      	ldr	r4, [pc, #768]	@ (8000ac8 <__aeabi_dadd+0x6c0>)
 80007c8:	1aff      	subs	r7, r7, r3
 80007ca:	4014      	ands	r4, r2
 80007cc:	e696      	b.n	80004fc <__aeabi_dadd+0xf4>
 80007ce:	4abf      	ldr	r2, [pc, #764]	@ (8000acc <__aeabi_dadd+0x6c4>)
 80007d0:	1c79      	adds	r1, r7, #1
 80007d2:	4211      	tst	r1, r2
 80007d4:	d16b      	bne.n	80008ae <__aeabi_dadd+0x4a6>
 80007d6:	0022      	movs	r2, r4
 80007d8:	4302      	orrs	r2, r0
 80007da:	2f00      	cmp	r7, #0
 80007dc:	d000      	beq.n	80007e0 <__aeabi_dadd+0x3d8>
 80007de:	e0db      	b.n	8000998 <__aeabi_dadd+0x590>
 80007e0:	2a00      	cmp	r2, #0
 80007e2:	d100      	bne.n	80007e6 <__aeabi_dadd+0x3de>
 80007e4:	e12d      	b.n	8000a42 <__aeabi_dadd+0x63a>
 80007e6:	4662      	mov	r2, ip
 80007e8:	4653      	mov	r3, sl
 80007ea:	431a      	orrs	r2, r3
 80007ec:	d100      	bne.n	80007f0 <__aeabi_dadd+0x3e8>
 80007ee:	e0b6      	b.n	800095e <__aeabi_dadd+0x556>
 80007f0:	4663      	mov	r3, ip
 80007f2:	18c5      	adds	r5, r0, r3
 80007f4:	4285      	cmp	r5, r0
 80007f6:	4180      	sbcs	r0, r0
 80007f8:	4454      	add	r4, sl
 80007fa:	4240      	negs	r0, r0
 80007fc:	1824      	adds	r4, r4, r0
 80007fe:	0223      	lsls	r3, r4, #8
 8000800:	d502      	bpl.n	8000808 <__aeabi_dadd+0x400>
 8000802:	000f      	movs	r7, r1
 8000804:	4bb0      	ldr	r3, [pc, #704]	@ (8000ac8 <__aeabi_dadd+0x6c0>)
 8000806:	401c      	ands	r4, r3
 8000808:	003a      	movs	r2, r7
 800080a:	0028      	movs	r0, r5
 800080c:	e7d8      	b.n	80007c0 <__aeabi_dadd+0x3b8>
 800080e:	4662      	mov	r2, ip
 8000810:	1a85      	subs	r5, r0, r2
 8000812:	42a8      	cmp	r0, r5
 8000814:	4192      	sbcs	r2, r2
 8000816:	4653      	mov	r3, sl
 8000818:	4252      	negs	r2, r2
 800081a:	4691      	mov	r9, r2
 800081c:	1ae3      	subs	r3, r4, r3
 800081e:	001a      	movs	r2, r3
 8000820:	464b      	mov	r3, r9
 8000822:	1ad2      	subs	r2, r2, r3
 8000824:	0013      	movs	r3, r2
 8000826:	4691      	mov	r9, r2
 8000828:	021a      	lsls	r2, r3, #8
 800082a:	d454      	bmi.n	80008d6 <__aeabi_dadd+0x4ce>
 800082c:	464a      	mov	r2, r9
 800082e:	464c      	mov	r4, r9
 8000830:	432a      	orrs	r2, r5
 8000832:	d000      	beq.n	8000836 <__aeabi_dadd+0x42e>
 8000834:	e640      	b.n	80004b8 <__aeabi_dadd+0xb0>
 8000836:	2600      	movs	r6, #0
 8000838:	2400      	movs	r4, #0
 800083a:	2500      	movs	r5, #0
 800083c:	e67c      	b.n	8000538 <__aeabi_dadd+0x130>
 800083e:	4da1      	ldr	r5, [pc, #644]	@ (8000ac4 <__aeabi_dadd+0x6bc>)
 8000840:	45a9      	cmp	r9, r5
 8000842:	d100      	bne.n	8000846 <__aeabi_dadd+0x43e>
 8000844:	e090      	b.n	8000968 <__aeabi_dadd+0x560>
 8000846:	2501      	movs	r5, #1
 8000848:	2a38      	cmp	r2, #56	@ 0x38
 800084a:	dd00      	ble.n	800084e <__aeabi_dadd+0x446>
 800084c:	e6ab      	b.n	80005a6 <__aeabi_dadd+0x19e>
 800084e:	2580      	movs	r5, #128	@ 0x80
 8000850:	042d      	lsls	r5, r5, #16
 8000852:	432c      	orrs	r4, r5
 8000854:	e695      	b.n	8000582 <__aeabi_dadd+0x17a>
 8000856:	0011      	movs	r1, r2
 8000858:	4655      	mov	r5, sl
 800085a:	3920      	subs	r1, #32
 800085c:	40cd      	lsrs	r5, r1
 800085e:	46a9      	mov	r9, r5
 8000860:	2a20      	cmp	r2, #32
 8000862:	d006      	beq.n	8000872 <__aeabi_dadd+0x46a>
 8000864:	2140      	movs	r1, #64	@ 0x40
 8000866:	4653      	mov	r3, sl
 8000868:	1a8a      	subs	r2, r1, r2
 800086a:	4093      	lsls	r3, r2
 800086c:	4662      	mov	r2, ip
 800086e:	431a      	orrs	r2, r3
 8000870:	4694      	mov	ip, r2
 8000872:	4665      	mov	r5, ip
 8000874:	1e6b      	subs	r3, r5, #1
 8000876:	419d      	sbcs	r5, r3
 8000878:	464b      	mov	r3, r9
 800087a:	431d      	orrs	r5, r3
 800087c:	e612      	b.n	80004a4 <__aeabi_dadd+0x9c>
 800087e:	0021      	movs	r1, r4
 8000880:	4301      	orrs	r1, r0
 8000882:	d100      	bne.n	8000886 <__aeabi_dadd+0x47e>
 8000884:	e0c4      	b.n	8000a10 <__aeabi_dadd+0x608>
 8000886:	1e51      	subs	r1, r2, #1
 8000888:	2a01      	cmp	r2, #1
 800088a:	d100      	bne.n	800088e <__aeabi_dadd+0x486>
 800088c:	e0fb      	b.n	8000a86 <__aeabi_dadd+0x67e>
 800088e:	4d8d      	ldr	r5, [pc, #564]	@ (8000ac4 <__aeabi_dadd+0x6bc>)
 8000890:	42aa      	cmp	r2, r5
 8000892:	d100      	bne.n	8000896 <__aeabi_dadd+0x48e>
 8000894:	e0b5      	b.n	8000a02 <__aeabi_dadd+0x5fa>
 8000896:	2501      	movs	r5, #1
 8000898:	2938      	cmp	r1, #56	@ 0x38
 800089a:	dd00      	ble.n	800089e <__aeabi_dadd+0x496>
 800089c:	e741      	b.n	8000722 <__aeabi_dadd+0x31a>
 800089e:	000a      	movs	r2, r1
 80008a0:	e72f      	b.n	8000702 <__aeabi_dadd+0x2fa>
 80008a2:	4c89      	ldr	r4, [pc, #548]	@ (8000ac8 <__aeabi_dadd+0x6c0>)
 80008a4:	1aff      	subs	r7, r7, r3
 80008a6:	4014      	ands	r4, r2
 80008a8:	0762      	lsls	r2, r4, #29
 80008aa:	08e4      	lsrs	r4, r4, #3
 80008ac:	e76a      	b.n	8000784 <__aeabi_dadd+0x37c>
 80008ae:	4a85      	ldr	r2, [pc, #532]	@ (8000ac4 <__aeabi_dadd+0x6bc>)
 80008b0:	4291      	cmp	r1, r2
 80008b2:	d100      	bne.n	80008b6 <__aeabi_dadd+0x4ae>
 80008b4:	e0e3      	b.n	8000a7e <__aeabi_dadd+0x676>
 80008b6:	4663      	mov	r3, ip
 80008b8:	18c2      	adds	r2, r0, r3
 80008ba:	4282      	cmp	r2, r0
 80008bc:	4180      	sbcs	r0, r0
 80008be:	0023      	movs	r3, r4
 80008c0:	4240      	negs	r0, r0
 80008c2:	4453      	add	r3, sl
 80008c4:	181b      	adds	r3, r3, r0
 80008c6:	07dd      	lsls	r5, r3, #31
 80008c8:	085c      	lsrs	r4, r3, #1
 80008ca:	2307      	movs	r3, #7
 80008cc:	0852      	lsrs	r2, r2, #1
 80008ce:	4315      	orrs	r5, r2
 80008d0:	000f      	movs	r7, r1
 80008d2:	402b      	ands	r3, r5
 80008d4:	e700      	b.n	80006d8 <__aeabi_dadd+0x2d0>
 80008d6:	4663      	mov	r3, ip
 80008d8:	1a1d      	subs	r5, r3, r0
 80008da:	45ac      	cmp	ip, r5
 80008dc:	4192      	sbcs	r2, r2
 80008de:	4653      	mov	r3, sl
 80008e0:	4252      	negs	r2, r2
 80008e2:	1b1c      	subs	r4, r3, r4
 80008e4:	000e      	movs	r6, r1
 80008e6:	4688      	mov	r8, r1
 80008e8:	1aa4      	subs	r4, r4, r2
 80008ea:	e5e5      	b.n	80004b8 <__aeabi_dadd+0xb0>
 80008ec:	2d00      	cmp	r5, #0
 80008ee:	d000      	beq.n	80008f2 <__aeabi_dadd+0x4ea>
 80008f0:	e091      	b.n	8000a16 <__aeabi_dadd+0x60e>
 80008f2:	2a00      	cmp	r2, #0
 80008f4:	d138      	bne.n	8000968 <__aeabi_dadd+0x560>
 80008f6:	2480      	movs	r4, #128	@ 0x80
 80008f8:	2600      	movs	r6, #0
 80008fa:	0324      	lsls	r4, r4, #12
 80008fc:	e756      	b.n	80007ac <__aeabi_dadd+0x3a4>
 80008fe:	4663      	mov	r3, ip
 8000900:	18c5      	adds	r5, r0, r3
 8000902:	4285      	cmp	r5, r0
 8000904:	4180      	sbcs	r0, r0
 8000906:	4454      	add	r4, sl
 8000908:	4240      	negs	r0, r0
 800090a:	1824      	adds	r4, r4, r0
 800090c:	2701      	movs	r7, #1
 800090e:	0223      	lsls	r3, r4, #8
 8000910:	d400      	bmi.n	8000914 <__aeabi_dadd+0x50c>
 8000912:	e6df      	b.n	80006d4 <__aeabi_dadd+0x2cc>
 8000914:	2702      	movs	r7, #2
 8000916:	e687      	b.n	8000628 <__aeabi_dadd+0x220>
 8000918:	4663      	mov	r3, ip
 800091a:	1ac5      	subs	r5, r0, r3
 800091c:	42a8      	cmp	r0, r5
 800091e:	4180      	sbcs	r0, r0
 8000920:	4653      	mov	r3, sl
 8000922:	4240      	negs	r0, r0
 8000924:	1ae4      	subs	r4, r4, r3
 8000926:	2701      	movs	r7, #1
 8000928:	1a24      	subs	r4, r4, r0
 800092a:	e5c0      	b.n	80004ae <__aeabi_dadd+0xa6>
 800092c:	0762      	lsls	r2, r4, #29
 800092e:	08c0      	lsrs	r0, r0, #3
 8000930:	4302      	orrs	r2, r0
 8000932:	08e4      	lsrs	r4, r4, #3
 8000934:	e736      	b.n	80007a4 <__aeabi_dadd+0x39c>
 8000936:	0011      	movs	r1, r2
 8000938:	4653      	mov	r3, sl
 800093a:	3920      	subs	r1, #32
 800093c:	40cb      	lsrs	r3, r1
 800093e:	4699      	mov	r9, r3
 8000940:	2a20      	cmp	r2, #32
 8000942:	d006      	beq.n	8000952 <__aeabi_dadd+0x54a>
 8000944:	2140      	movs	r1, #64	@ 0x40
 8000946:	4653      	mov	r3, sl
 8000948:	1a8a      	subs	r2, r1, r2
 800094a:	4093      	lsls	r3, r2
 800094c:	4662      	mov	r2, ip
 800094e:	431a      	orrs	r2, r3
 8000950:	4694      	mov	ip, r2
 8000952:	4665      	mov	r5, ip
 8000954:	1e6b      	subs	r3, r5, #1
 8000956:	419d      	sbcs	r5, r3
 8000958:	464b      	mov	r3, r9
 800095a:	431d      	orrs	r5, r3
 800095c:	e659      	b.n	8000612 <__aeabi_dadd+0x20a>
 800095e:	0762      	lsls	r2, r4, #29
 8000960:	08c0      	lsrs	r0, r0, #3
 8000962:	4302      	orrs	r2, r0
 8000964:	08e4      	lsrs	r4, r4, #3
 8000966:	e70d      	b.n	8000784 <__aeabi_dadd+0x37c>
 8000968:	4653      	mov	r3, sl
 800096a:	075a      	lsls	r2, r3, #29
 800096c:	4663      	mov	r3, ip
 800096e:	08d8      	lsrs	r0, r3, #3
 8000970:	4653      	mov	r3, sl
 8000972:	000e      	movs	r6, r1
 8000974:	4302      	orrs	r2, r0
 8000976:	08dc      	lsrs	r4, r3, #3
 8000978:	e714      	b.n	80007a4 <__aeabi_dadd+0x39c>
 800097a:	0015      	movs	r5, r2
 800097c:	0026      	movs	r6, r4
 800097e:	3d20      	subs	r5, #32
 8000980:	40ee      	lsrs	r6, r5
 8000982:	2a20      	cmp	r2, #32
 8000984:	d003      	beq.n	800098e <__aeabi_dadd+0x586>
 8000986:	2540      	movs	r5, #64	@ 0x40
 8000988:	1aaa      	subs	r2, r5, r2
 800098a:	4094      	lsls	r4, r2
 800098c:	4320      	orrs	r0, r4
 800098e:	1e42      	subs	r2, r0, #1
 8000990:	4190      	sbcs	r0, r2
 8000992:	0005      	movs	r5, r0
 8000994:	4335      	orrs	r5, r6
 8000996:	e606      	b.n	80005a6 <__aeabi_dadd+0x19e>
 8000998:	2a00      	cmp	r2, #0
 800099a:	d07c      	beq.n	8000a96 <__aeabi_dadd+0x68e>
 800099c:	4662      	mov	r2, ip
 800099e:	4653      	mov	r3, sl
 80009a0:	08c0      	lsrs	r0, r0, #3
 80009a2:	431a      	orrs	r2, r3
 80009a4:	d100      	bne.n	80009a8 <__aeabi_dadd+0x5a0>
 80009a6:	e6fa      	b.n	800079e <__aeabi_dadd+0x396>
 80009a8:	0762      	lsls	r2, r4, #29
 80009aa:	4310      	orrs	r0, r2
 80009ac:	2280      	movs	r2, #128	@ 0x80
 80009ae:	08e4      	lsrs	r4, r4, #3
 80009b0:	0312      	lsls	r2, r2, #12
 80009b2:	4214      	tst	r4, r2
 80009b4:	d008      	beq.n	80009c8 <__aeabi_dadd+0x5c0>
 80009b6:	08d9      	lsrs	r1, r3, #3
 80009b8:	4211      	tst	r1, r2
 80009ba:	d105      	bne.n	80009c8 <__aeabi_dadd+0x5c0>
 80009bc:	4663      	mov	r3, ip
 80009be:	08d8      	lsrs	r0, r3, #3
 80009c0:	4653      	mov	r3, sl
 80009c2:	000c      	movs	r4, r1
 80009c4:	075b      	lsls	r3, r3, #29
 80009c6:	4318      	orrs	r0, r3
 80009c8:	0f42      	lsrs	r2, r0, #29
 80009ca:	00c0      	lsls	r0, r0, #3
 80009cc:	08c0      	lsrs	r0, r0, #3
 80009ce:	0752      	lsls	r2, r2, #29
 80009d0:	4302      	orrs	r2, r0
 80009d2:	e6e7      	b.n	80007a4 <__aeabi_dadd+0x39c>
 80009d4:	2a00      	cmp	r2, #0
 80009d6:	d100      	bne.n	80009da <__aeabi_dadd+0x5d2>
 80009d8:	e72d      	b.n	8000836 <__aeabi_dadd+0x42e>
 80009da:	4663      	mov	r3, ip
 80009dc:	08d8      	lsrs	r0, r3, #3
 80009de:	4653      	mov	r3, sl
 80009e0:	075a      	lsls	r2, r3, #29
 80009e2:	000e      	movs	r6, r1
 80009e4:	4302      	orrs	r2, r0
 80009e6:	08dc      	lsrs	r4, r3, #3
 80009e8:	e6cc      	b.n	8000784 <__aeabi_dadd+0x37c>
 80009ea:	4663      	mov	r3, ip
 80009ec:	1a1d      	subs	r5, r3, r0
 80009ee:	45ac      	cmp	ip, r5
 80009f0:	4192      	sbcs	r2, r2
 80009f2:	4653      	mov	r3, sl
 80009f4:	4252      	negs	r2, r2
 80009f6:	1b1c      	subs	r4, r3, r4
 80009f8:	000e      	movs	r6, r1
 80009fa:	4688      	mov	r8, r1
 80009fc:	1aa4      	subs	r4, r4, r2
 80009fe:	3701      	adds	r7, #1
 8000a00:	e555      	b.n	80004ae <__aeabi_dadd+0xa6>
 8000a02:	4663      	mov	r3, ip
 8000a04:	08d9      	lsrs	r1, r3, #3
 8000a06:	4653      	mov	r3, sl
 8000a08:	075a      	lsls	r2, r3, #29
 8000a0a:	430a      	orrs	r2, r1
 8000a0c:	08dc      	lsrs	r4, r3, #3
 8000a0e:	e6c9      	b.n	80007a4 <__aeabi_dadd+0x39c>
 8000a10:	4660      	mov	r0, ip
 8000a12:	4654      	mov	r4, sl
 8000a14:	e6d4      	b.n	80007c0 <__aeabi_dadd+0x3b8>
 8000a16:	08c0      	lsrs	r0, r0, #3
 8000a18:	2a00      	cmp	r2, #0
 8000a1a:	d100      	bne.n	8000a1e <__aeabi_dadd+0x616>
 8000a1c:	e6bf      	b.n	800079e <__aeabi_dadd+0x396>
 8000a1e:	0762      	lsls	r2, r4, #29
 8000a20:	4310      	orrs	r0, r2
 8000a22:	2280      	movs	r2, #128	@ 0x80
 8000a24:	08e4      	lsrs	r4, r4, #3
 8000a26:	0312      	lsls	r2, r2, #12
 8000a28:	4214      	tst	r4, r2
 8000a2a:	d0cd      	beq.n	80009c8 <__aeabi_dadd+0x5c0>
 8000a2c:	08dd      	lsrs	r5, r3, #3
 8000a2e:	4215      	tst	r5, r2
 8000a30:	d1ca      	bne.n	80009c8 <__aeabi_dadd+0x5c0>
 8000a32:	4663      	mov	r3, ip
 8000a34:	08d8      	lsrs	r0, r3, #3
 8000a36:	4653      	mov	r3, sl
 8000a38:	075b      	lsls	r3, r3, #29
 8000a3a:	000e      	movs	r6, r1
 8000a3c:	002c      	movs	r4, r5
 8000a3e:	4318      	orrs	r0, r3
 8000a40:	e7c2      	b.n	80009c8 <__aeabi_dadd+0x5c0>
 8000a42:	4663      	mov	r3, ip
 8000a44:	08d9      	lsrs	r1, r3, #3
 8000a46:	4653      	mov	r3, sl
 8000a48:	075a      	lsls	r2, r3, #29
 8000a4a:	430a      	orrs	r2, r1
 8000a4c:	08dc      	lsrs	r4, r3, #3
 8000a4e:	e699      	b.n	8000784 <__aeabi_dadd+0x37c>
 8000a50:	4663      	mov	r3, ip
 8000a52:	08d8      	lsrs	r0, r3, #3
 8000a54:	4653      	mov	r3, sl
 8000a56:	075a      	lsls	r2, r3, #29
 8000a58:	000e      	movs	r6, r1
 8000a5a:	4302      	orrs	r2, r0
 8000a5c:	08dc      	lsrs	r4, r3, #3
 8000a5e:	e6a1      	b.n	80007a4 <__aeabi_dadd+0x39c>
 8000a60:	0011      	movs	r1, r2
 8000a62:	0027      	movs	r7, r4
 8000a64:	3920      	subs	r1, #32
 8000a66:	40cf      	lsrs	r7, r1
 8000a68:	2a20      	cmp	r2, #32
 8000a6a:	d003      	beq.n	8000a74 <__aeabi_dadd+0x66c>
 8000a6c:	2140      	movs	r1, #64	@ 0x40
 8000a6e:	1a8a      	subs	r2, r1, r2
 8000a70:	4094      	lsls	r4, r2
 8000a72:	4320      	orrs	r0, r4
 8000a74:	1e42      	subs	r2, r0, #1
 8000a76:	4190      	sbcs	r0, r2
 8000a78:	0005      	movs	r5, r0
 8000a7a:	433d      	orrs	r5, r7
 8000a7c:	e651      	b.n	8000722 <__aeabi_dadd+0x31a>
 8000a7e:	000c      	movs	r4, r1
 8000a80:	2500      	movs	r5, #0
 8000a82:	2200      	movs	r2, #0
 8000a84:	e558      	b.n	8000538 <__aeabi_dadd+0x130>
 8000a86:	4460      	add	r0, ip
 8000a88:	4560      	cmp	r0, ip
 8000a8a:	4192      	sbcs	r2, r2
 8000a8c:	4454      	add	r4, sl
 8000a8e:	4252      	negs	r2, r2
 8000a90:	0005      	movs	r5, r0
 8000a92:	18a4      	adds	r4, r4, r2
 8000a94:	e73a      	b.n	800090c <__aeabi_dadd+0x504>
 8000a96:	4653      	mov	r3, sl
 8000a98:	075a      	lsls	r2, r3, #29
 8000a9a:	4663      	mov	r3, ip
 8000a9c:	08d9      	lsrs	r1, r3, #3
 8000a9e:	4653      	mov	r3, sl
 8000aa0:	430a      	orrs	r2, r1
 8000aa2:	08dc      	lsrs	r4, r3, #3
 8000aa4:	e67e      	b.n	80007a4 <__aeabi_dadd+0x39c>
 8000aa6:	001a      	movs	r2, r3
 8000aa8:	001c      	movs	r4, r3
 8000aaa:	432a      	orrs	r2, r5
 8000aac:	d000      	beq.n	8000ab0 <__aeabi_dadd+0x6a8>
 8000aae:	e6ab      	b.n	8000808 <__aeabi_dadd+0x400>
 8000ab0:	e6c1      	b.n	8000836 <__aeabi_dadd+0x42e>
 8000ab2:	2120      	movs	r1, #32
 8000ab4:	2500      	movs	r5, #0
 8000ab6:	1a09      	subs	r1, r1, r0
 8000ab8:	e519      	b.n	80004ee <__aeabi_dadd+0xe6>
 8000aba:	2200      	movs	r2, #0
 8000abc:	2500      	movs	r5, #0
 8000abe:	4c01      	ldr	r4, [pc, #4]	@ (8000ac4 <__aeabi_dadd+0x6bc>)
 8000ac0:	e53a      	b.n	8000538 <__aeabi_dadd+0x130>
 8000ac2:	46c0      	nop			@ (mov r8, r8)
 8000ac4:	000007ff 	.word	0x000007ff
 8000ac8:	ff7fffff 	.word	0xff7fffff
 8000acc:	000007fe 	.word	0x000007fe

08000ad0 <__aeabi_ddiv>:
 8000ad0:	b5f0      	push	{r4, r5, r6, r7, lr}
 8000ad2:	46de      	mov	lr, fp
 8000ad4:	4645      	mov	r5, r8
 8000ad6:	4657      	mov	r7, sl
 8000ad8:	464e      	mov	r6, r9
 8000ada:	b5e0      	push	{r5, r6, r7, lr}
 8000adc:	b087      	sub	sp, #28
 8000ade:	9200      	str	r2, [sp, #0]
 8000ae0:	9301      	str	r3, [sp, #4]
 8000ae2:	030b      	lsls	r3, r1, #12
 8000ae4:	0b1b      	lsrs	r3, r3, #12
 8000ae6:	469b      	mov	fp, r3
 8000ae8:	0fca      	lsrs	r2, r1, #31
 8000aea:	004b      	lsls	r3, r1, #1
 8000aec:	0004      	movs	r4, r0
 8000aee:	4680      	mov	r8, r0
 8000af0:	0d5b      	lsrs	r3, r3, #21
 8000af2:	9202      	str	r2, [sp, #8]
 8000af4:	d100      	bne.n	8000af8 <__aeabi_ddiv+0x28>
 8000af6:	e16a      	b.n	8000dce <__aeabi_ddiv+0x2fe>
 8000af8:	4ad4      	ldr	r2, [pc, #848]	@ (8000e4c <__aeabi_ddiv+0x37c>)
 8000afa:	4293      	cmp	r3, r2
 8000afc:	d100      	bne.n	8000b00 <__aeabi_ddiv+0x30>
 8000afe:	e18c      	b.n	8000e1a <__aeabi_ddiv+0x34a>
 8000b00:	4659      	mov	r1, fp
 8000b02:	0f42      	lsrs	r2, r0, #29
 8000b04:	00c9      	lsls	r1, r1, #3
 8000b06:	430a      	orrs	r2, r1
 8000b08:	2180      	movs	r1, #128	@ 0x80
 8000b0a:	0409      	lsls	r1, r1, #16
 8000b0c:	4311      	orrs	r1, r2
 8000b0e:	00c2      	lsls	r2, r0, #3
 8000b10:	4690      	mov	r8, r2
 8000b12:	4acf      	ldr	r2, [pc, #828]	@ (8000e50 <__aeabi_ddiv+0x380>)
 8000b14:	4689      	mov	r9, r1
 8000b16:	4692      	mov	sl, r2
 8000b18:	449a      	add	sl, r3
 8000b1a:	2300      	movs	r3, #0
 8000b1c:	2400      	movs	r4, #0
 8000b1e:	9303      	str	r3, [sp, #12]
 8000b20:	9e00      	ldr	r6, [sp, #0]
 8000b22:	9f01      	ldr	r7, [sp, #4]
 8000b24:	033b      	lsls	r3, r7, #12
 8000b26:	0b1b      	lsrs	r3, r3, #12
 8000b28:	469b      	mov	fp, r3
 8000b2a:	007b      	lsls	r3, r7, #1
 8000b2c:	0030      	movs	r0, r6
 8000b2e:	0d5b      	lsrs	r3, r3, #21
 8000b30:	0ffd      	lsrs	r5, r7, #31
 8000b32:	2b00      	cmp	r3, #0
 8000b34:	d100      	bne.n	8000b38 <__aeabi_ddiv+0x68>
 8000b36:	e128      	b.n	8000d8a <__aeabi_ddiv+0x2ba>
 8000b38:	4ac4      	ldr	r2, [pc, #784]	@ (8000e4c <__aeabi_ddiv+0x37c>)
 8000b3a:	4293      	cmp	r3, r2
 8000b3c:	d100      	bne.n	8000b40 <__aeabi_ddiv+0x70>
 8000b3e:	e177      	b.n	8000e30 <__aeabi_ddiv+0x360>
 8000b40:	4659      	mov	r1, fp
 8000b42:	0f72      	lsrs	r2, r6, #29
 8000b44:	00c9      	lsls	r1, r1, #3
 8000b46:	430a      	orrs	r2, r1
 8000b48:	2180      	movs	r1, #128	@ 0x80
 8000b4a:	0409      	lsls	r1, r1, #16
 8000b4c:	4311      	orrs	r1, r2
 8000b4e:	468b      	mov	fp, r1
 8000b50:	49bf      	ldr	r1, [pc, #764]	@ (8000e50 <__aeabi_ddiv+0x380>)
 8000b52:	00f2      	lsls	r2, r6, #3
 8000b54:	468c      	mov	ip, r1
 8000b56:	4651      	mov	r1, sl
 8000b58:	4463      	add	r3, ip
 8000b5a:	1acb      	subs	r3, r1, r3
 8000b5c:	469a      	mov	sl, r3
 8000b5e:	2300      	movs	r3, #0
 8000b60:	9e02      	ldr	r6, [sp, #8]
 8000b62:	406e      	eors	r6, r5
 8000b64:	2c0f      	cmp	r4, #15
 8000b66:	d827      	bhi.n	8000bb8 <__aeabi_ddiv+0xe8>
 8000b68:	49ba      	ldr	r1, [pc, #744]	@ (8000e54 <__aeabi_ddiv+0x384>)
 8000b6a:	00a4      	lsls	r4, r4, #2
 8000b6c:	5909      	ldr	r1, [r1, r4]
 8000b6e:	468f      	mov	pc, r1
 8000b70:	46cb      	mov	fp, r9
 8000b72:	4642      	mov	r2, r8
 8000b74:	9e02      	ldr	r6, [sp, #8]
 8000b76:	9b03      	ldr	r3, [sp, #12]
 8000b78:	2b02      	cmp	r3, #2
 8000b7a:	d016      	beq.n	8000baa <__aeabi_ddiv+0xda>
 8000b7c:	2b03      	cmp	r3, #3
 8000b7e:	d100      	bne.n	8000b82 <__aeabi_ddiv+0xb2>
 8000b80:	e2a6      	b.n	80010d0 <__aeabi_ddiv+0x600>
 8000b82:	2b01      	cmp	r3, #1
 8000b84:	d000      	beq.n	8000b88 <__aeabi_ddiv+0xb8>
 8000b86:	e0df      	b.n	8000d48 <__aeabi_ddiv+0x278>
 8000b88:	2200      	movs	r2, #0
 8000b8a:	2300      	movs	r3, #0
 8000b8c:	2400      	movs	r4, #0
 8000b8e:	4690      	mov	r8, r2
 8000b90:	051b      	lsls	r3, r3, #20
 8000b92:	4323      	orrs	r3, r4
 8000b94:	07f6      	lsls	r6, r6, #31
 8000b96:	4333      	orrs	r3, r6
 8000b98:	4640      	mov	r0, r8
 8000b9a:	0019      	movs	r1, r3
 8000b9c:	b007      	add	sp, #28
 8000b9e:	bcf0      	pop	{r4, r5, r6, r7}
 8000ba0:	46bb      	mov	fp, r7
 8000ba2:	46b2      	mov	sl, r6
 8000ba4:	46a9      	mov	r9, r5
 8000ba6:	46a0      	mov	r8, r4
 8000ba8:	bdf0      	pop	{r4, r5, r6, r7, pc}
 8000baa:	2200      	movs	r2, #0
 8000bac:	2400      	movs	r4, #0
 8000bae:	4690      	mov	r8, r2
 8000bb0:	4ba6      	ldr	r3, [pc, #664]	@ (8000e4c <__aeabi_ddiv+0x37c>)
 8000bb2:	e7ed      	b.n	8000b90 <__aeabi_ddiv+0xc0>
 8000bb4:	002e      	movs	r6, r5
 8000bb6:	e7df      	b.n	8000b78 <__aeabi_ddiv+0xa8>
 8000bb8:	45cb      	cmp	fp, r9
 8000bba:	d200      	bcs.n	8000bbe <__aeabi_ddiv+0xee>
 8000bbc:	e1d4      	b.n	8000f68 <__aeabi_ddiv+0x498>
 8000bbe:	d100      	bne.n	8000bc2 <__aeabi_ddiv+0xf2>
 8000bc0:	e1cf      	b.n	8000f62 <__aeabi_ddiv+0x492>
 8000bc2:	2301      	movs	r3, #1
 8000bc4:	425b      	negs	r3, r3
 8000bc6:	469c      	mov	ip, r3
 8000bc8:	4644      	mov	r4, r8
 8000bca:	4648      	mov	r0, r9
 8000bcc:	2700      	movs	r7, #0
 8000bce:	44e2      	add	sl, ip
 8000bd0:	465b      	mov	r3, fp
 8000bd2:	0e15      	lsrs	r5, r2, #24
 8000bd4:	021b      	lsls	r3, r3, #8
 8000bd6:	431d      	orrs	r5, r3
 8000bd8:	0c19      	lsrs	r1, r3, #16
 8000bda:	042b      	lsls	r3, r5, #16
 8000bdc:	0212      	lsls	r2, r2, #8
 8000bde:	9500      	str	r5, [sp, #0]
 8000be0:	0c1d      	lsrs	r5, r3, #16
 8000be2:	4691      	mov	r9, r2
 8000be4:	9102      	str	r1, [sp, #8]
 8000be6:	9503      	str	r5, [sp, #12]
 8000be8:	f7ff fb14 	bl	8000214 <__aeabi_uidivmod>
 8000bec:	0002      	movs	r2, r0
 8000bee:	436a      	muls	r2, r5
 8000bf0:	040b      	lsls	r3, r1, #16
 8000bf2:	0c21      	lsrs	r1, r4, #16
 8000bf4:	4680      	mov	r8, r0
 8000bf6:	4319      	orrs	r1, r3
 8000bf8:	428a      	cmp	r2, r1
 8000bfa:	d909      	bls.n	8000c10 <__aeabi_ddiv+0x140>
 8000bfc:	9d00      	ldr	r5, [sp, #0]
 8000bfe:	2301      	movs	r3, #1
 8000c00:	46ac      	mov	ip, r5
 8000c02:	425b      	negs	r3, r3
 8000c04:	4461      	add	r1, ip
 8000c06:	469c      	mov	ip, r3
 8000c08:	44e0      	add	r8, ip
 8000c0a:	428d      	cmp	r5, r1
 8000c0c:	d800      	bhi.n	8000c10 <__aeabi_ddiv+0x140>
 8000c0e:	e1fb      	b.n	8001008 <__aeabi_ddiv+0x538>
 8000c10:	1a88      	subs	r0, r1, r2
 8000c12:	9902      	ldr	r1, [sp, #8]
 8000c14:	f7ff fafe 	bl	8000214 <__aeabi_uidivmod>
 8000c18:	9a03      	ldr	r2, [sp, #12]
 8000c1a:	0424      	lsls	r4, r4, #16
 8000c1c:	4342      	muls	r2, r0
 8000c1e:	0409      	lsls	r1, r1, #16
 8000c20:	0c24      	lsrs	r4, r4, #16
 8000c22:	0003      	movs	r3, r0
 8000c24:	430c      	orrs	r4, r1
 8000c26:	42a2      	cmp	r2, r4
 8000c28:	d906      	bls.n	8000c38 <__aeabi_ddiv+0x168>
 8000c2a:	9900      	ldr	r1, [sp, #0]
 8000c2c:	3b01      	subs	r3, #1
 8000c2e:	468c      	mov	ip, r1
 8000c30:	4464      	add	r4, ip
 8000c32:	42a1      	cmp	r1, r4
 8000c34:	d800      	bhi.n	8000c38 <__aeabi_ddiv+0x168>
 8000c36:	e1e1      	b.n	8000ffc <__aeabi_ddiv+0x52c>
 8000c38:	1aa0      	subs	r0, r4, r2
 8000c3a:	4642      	mov	r2, r8
 8000c3c:	0412      	lsls	r2, r2, #16
 8000c3e:	431a      	orrs	r2, r3
 8000c40:	4693      	mov	fp, r2
 8000c42:	464b      	mov	r3, r9
 8000c44:	4659      	mov	r1, fp
 8000c46:	0c1b      	lsrs	r3, r3, #16
 8000c48:	001d      	movs	r5, r3
 8000c4a:	9304      	str	r3, [sp, #16]
 8000c4c:	040b      	lsls	r3, r1, #16
 8000c4e:	4649      	mov	r1, r9
 8000c50:	0409      	lsls	r1, r1, #16
 8000c52:	0c09      	lsrs	r1, r1, #16
 8000c54:	000c      	movs	r4, r1
 8000c56:	0c1b      	lsrs	r3, r3, #16
 8000c58:	435c      	muls	r4, r3
 8000c5a:	0c12      	lsrs	r2, r2, #16
 8000c5c:	436b      	muls	r3, r5
 8000c5e:	4688      	mov	r8, r1
 8000c60:	4351      	muls	r1, r2
 8000c62:	436a      	muls	r2, r5
 8000c64:	0c25      	lsrs	r5, r4, #16
 8000c66:	46ac      	mov	ip, r5
 8000c68:	185b      	adds	r3, r3, r1
 8000c6a:	4463      	add	r3, ip
 8000c6c:	4299      	cmp	r1, r3
 8000c6e:	d903      	bls.n	8000c78 <__aeabi_ddiv+0x1a8>
 8000c70:	2180      	movs	r1, #128	@ 0x80
 8000c72:	0249      	lsls	r1, r1, #9
 8000c74:	468c      	mov	ip, r1
 8000c76:	4462      	add	r2, ip
 8000c78:	0c19      	lsrs	r1, r3, #16
 8000c7a:	0424      	lsls	r4, r4, #16
 8000c7c:	041b      	lsls	r3, r3, #16
 8000c7e:	0c24      	lsrs	r4, r4, #16
 8000c80:	188a      	adds	r2, r1, r2
 8000c82:	191c      	adds	r4, r3, r4
 8000c84:	4290      	cmp	r0, r2
 8000c86:	d302      	bcc.n	8000c8e <__aeabi_ddiv+0x1be>
 8000c88:	d116      	bne.n	8000cb8 <__aeabi_ddiv+0x1e8>
 8000c8a:	42a7      	cmp	r7, r4
 8000c8c:	d214      	bcs.n	8000cb8 <__aeabi_ddiv+0x1e8>
 8000c8e:	465b      	mov	r3, fp
 8000c90:	9d00      	ldr	r5, [sp, #0]
 8000c92:	3b01      	subs	r3, #1
 8000c94:	444f      	add	r7, r9
 8000c96:	9305      	str	r3, [sp, #20]
 8000c98:	454f      	cmp	r7, r9
 8000c9a:	419b      	sbcs	r3, r3
 8000c9c:	46ac      	mov	ip, r5
 8000c9e:	425b      	negs	r3, r3
 8000ca0:	4463      	add	r3, ip
 8000ca2:	18c0      	adds	r0, r0, r3
 8000ca4:	4285      	cmp	r5, r0
 8000ca6:	d300      	bcc.n	8000caa <__aeabi_ddiv+0x1da>
 8000ca8:	e1a1      	b.n	8000fee <__aeabi_ddiv+0x51e>
 8000caa:	4282      	cmp	r2, r0
 8000cac:	d900      	bls.n	8000cb0 <__aeabi_ddiv+0x1e0>
 8000cae:	e1f6      	b.n	800109e <__aeabi_ddiv+0x5ce>
 8000cb0:	d100      	bne.n	8000cb4 <__aeabi_ddiv+0x1e4>
 8000cb2:	e1f1      	b.n	8001098 <__aeabi_ddiv+0x5c8>
 8000cb4:	9b05      	ldr	r3, [sp, #20]
 8000cb6:	469b      	mov	fp, r3
 8000cb8:	1b3c      	subs	r4, r7, r4
 8000cba:	42a7      	cmp	r7, r4
 8000cbc:	41bf      	sbcs	r7, r7
 8000cbe:	9d00      	ldr	r5, [sp, #0]
 8000cc0:	1a80      	subs	r0, r0, r2
 8000cc2:	427f      	negs	r7, r7
 8000cc4:	1bc0      	subs	r0, r0, r7
 8000cc6:	4285      	cmp	r5, r0
 8000cc8:	d100      	bne.n	8000ccc <__aeabi_ddiv+0x1fc>
 8000cca:	e1d0      	b.n	800106e <__aeabi_ddiv+0x59e>
 8000ccc:	9902      	ldr	r1, [sp, #8]
 8000cce:	f7ff faa1 	bl	8000214 <__aeabi_uidivmod>
 8000cd2:	9a03      	ldr	r2, [sp, #12]
 8000cd4:	040b      	lsls	r3, r1, #16
 8000cd6:	4342      	muls	r2, r0
 8000cd8:	0c21      	lsrs	r1, r4, #16
 8000cda:	0007      	movs	r7, r0
 8000cdc:	4319      	orrs	r1, r3
 8000cde:	428a      	cmp	r2, r1
 8000ce0:	d900      	bls.n	8000ce4 <__aeabi_ddiv+0x214>
 8000ce2:	e178      	b.n	8000fd6 <__aeabi_ddiv+0x506>
 8000ce4:	1a88      	subs	r0, r1, r2
 8000ce6:	9902      	ldr	r1, [sp, #8]
 8000ce8:	f7ff fa94 	bl	8000214 <__aeabi_uidivmod>
 8000cec:	9a03      	ldr	r2, [sp, #12]
 8000cee:	0424      	lsls	r4, r4, #16
 8000cf0:	4342      	muls	r2, r0
 8000cf2:	0409      	lsls	r1, r1, #16
 8000cf4:	0c24      	lsrs	r4, r4, #16
 8000cf6:	0003      	movs	r3, r0
 8000cf8:	430c      	orrs	r4, r1
 8000cfa:	42a2      	cmp	r2, r4
 8000cfc:	d900      	bls.n	8000d00 <__aeabi_ddiv+0x230>
 8000cfe:	e15d      	b.n	8000fbc <__aeabi_ddiv+0x4ec>
 8000d00:	4641      	mov	r1, r8
 8000d02:	1aa4      	subs	r4, r4, r2
 8000d04:	043a      	lsls	r2, r7, #16
 8000d06:	431a      	orrs	r2, r3
 8000d08:	9d04      	ldr	r5, [sp, #16]
 8000d0a:	0413      	lsls	r3, r2, #16
 8000d0c:	0c1b      	lsrs	r3, r3, #16
 8000d0e:	4359      	muls	r1, r3
 8000d10:	4647      	mov	r7, r8
 8000d12:	436b      	muls	r3, r5
 8000d14:	469c      	mov	ip, r3
 8000d16:	0c10      	lsrs	r0, r2, #16
 8000d18:	4347      	muls	r7, r0
 8000d1a:	0c0b      	lsrs	r3, r1, #16
 8000d1c:	44bc      	add	ip, r7
 8000d1e:	4463      	add	r3, ip
 8000d20:	4368      	muls	r0, r5
 8000d22:	429f      	cmp	r7, r3
 8000d24:	d903      	bls.n	8000d2e <__aeabi_ddiv+0x25e>
 8000d26:	2580      	movs	r5, #128	@ 0x80
 8000d28:	026d      	lsls	r5, r5, #9
 8000d2a:	46ac      	mov	ip, r5
 8000d2c:	4460      	add	r0, ip
 8000d2e:	0c1f      	lsrs	r7, r3, #16
 8000d30:	0409      	lsls	r1, r1, #16
 8000d32:	041b      	lsls	r3, r3, #16
 8000d34:	0c09      	lsrs	r1, r1, #16
 8000d36:	183f      	adds	r7, r7, r0
 8000d38:	185b      	adds	r3, r3, r1
 8000d3a:	42bc      	cmp	r4, r7
 8000d3c:	d200      	bcs.n	8000d40 <__aeabi_ddiv+0x270>
 8000d3e:	e102      	b.n	8000f46 <__aeabi_ddiv+0x476>
 8000d40:	d100      	bne.n	8000d44 <__aeabi_ddiv+0x274>
 8000d42:	e0fd      	b.n	8000f40 <__aeabi_ddiv+0x470>
 8000d44:	2301      	movs	r3, #1
 8000d46:	431a      	orrs	r2, r3
 8000d48:	4b43      	ldr	r3, [pc, #268]	@ (8000e58 <__aeabi_ddiv+0x388>)
 8000d4a:	4453      	add	r3, sl
 8000d4c:	2b00      	cmp	r3, #0
 8000d4e:	dc00      	bgt.n	8000d52 <__aeabi_ddiv+0x282>
 8000d50:	e0ae      	b.n	8000eb0 <__aeabi_ddiv+0x3e0>
 8000d52:	0751      	lsls	r1, r2, #29
 8000d54:	d000      	beq.n	8000d58 <__aeabi_ddiv+0x288>
 8000d56:	e198      	b.n	800108a <__aeabi_ddiv+0x5ba>
 8000d58:	4659      	mov	r1, fp
 8000d5a:	01c9      	lsls	r1, r1, #7
 8000d5c:	d506      	bpl.n	8000d6c <__aeabi_ddiv+0x29c>
 8000d5e:	4659      	mov	r1, fp
 8000d60:	4b3e      	ldr	r3, [pc, #248]	@ (8000e5c <__aeabi_ddiv+0x38c>)
 8000d62:	4019      	ands	r1, r3
 8000d64:	2380      	movs	r3, #128	@ 0x80
 8000d66:	468b      	mov	fp, r1
 8000d68:	00db      	lsls	r3, r3, #3
 8000d6a:	4453      	add	r3, sl
 8000d6c:	493c      	ldr	r1, [pc, #240]	@ (8000e60 <__aeabi_ddiv+0x390>)
 8000d6e:	428b      	cmp	r3, r1
 8000d70:	dd00      	ble.n	8000d74 <__aeabi_ddiv+0x2a4>
 8000d72:	e71a      	b.n	8000baa <__aeabi_ddiv+0xda>
 8000d74:	4659      	mov	r1, fp
 8000d76:	08d2      	lsrs	r2, r2, #3
 8000d78:	0749      	lsls	r1, r1, #29
 8000d7a:	4311      	orrs	r1, r2
 8000d7c:	465a      	mov	r2, fp
 8000d7e:	055b      	lsls	r3, r3, #21
 8000d80:	0254      	lsls	r4, r2, #9
 8000d82:	4688      	mov	r8, r1
 8000d84:	0b24      	lsrs	r4, r4, #12
 8000d86:	0d5b      	lsrs	r3, r3, #21
 8000d88:	e702      	b.n	8000b90 <__aeabi_ddiv+0xc0>
 8000d8a:	465a      	mov	r2, fp
 8000d8c:	9b00      	ldr	r3, [sp, #0]
 8000d8e:	431a      	orrs	r2, r3
 8000d90:	d100      	bne.n	8000d94 <__aeabi_ddiv+0x2c4>
 8000d92:	e07e      	b.n	8000e92 <__aeabi_ddiv+0x3c2>
 8000d94:	465b      	mov	r3, fp
 8000d96:	2b00      	cmp	r3, #0
 8000d98:	d100      	bne.n	8000d9c <__aeabi_ddiv+0x2cc>
 8000d9a:	e100      	b.n	8000f9e <__aeabi_ddiv+0x4ce>
 8000d9c:	4658      	mov	r0, fp
 8000d9e:	f000 fa1b 	bl	80011d8 <__clzsi2>
 8000da2:	0002      	movs	r2, r0
 8000da4:	0003      	movs	r3, r0
 8000da6:	3a0b      	subs	r2, #11
 8000da8:	271d      	movs	r7, #29
 8000daa:	9e00      	ldr	r6, [sp, #0]
 8000dac:	1aba      	subs	r2, r7, r2
 8000dae:	0019      	movs	r1, r3
 8000db0:	4658      	mov	r0, fp
 8000db2:	40d6      	lsrs	r6, r2
 8000db4:	3908      	subs	r1, #8
 8000db6:	4088      	lsls	r0, r1
 8000db8:	0032      	movs	r2, r6
 8000dba:	4302      	orrs	r2, r0
 8000dbc:	4693      	mov	fp, r2
 8000dbe:	9a00      	ldr	r2, [sp, #0]
 8000dc0:	408a      	lsls	r2, r1
 8000dc2:	4928      	ldr	r1, [pc, #160]	@ (8000e64 <__aeabi_ddiv+0x394>)
 8000dc4:	4453      	add	r3, sl
 8000dc6:	468a      	mov	sl, r1
 8000dc8:	449a      	add	sl, r3
 8000dca:	2300      	movs	r3, #0
 8000dcc:	e6c8      	b.n	8000b60 <__aeabi_ddiv+0x90>
 8000dce:	465b      	mov	r3, fp
 8000dd0:	4303      	orrs	r3, r0
 8000dd2:	4699      	mov	r9, r3
 8000dd4:	d056      	beq.n	8000e84 <__aeabi_ddiv+0x3b4>
 8000dd6:	465b      	mov	r3, fp
 8000dd8:	2b00      	cmp	r3, #0
 8000dda:	d100      	bne.n	8000dde <__aeabi_ddiv+0x30e>
 8000ddc:	e0cd      	b.n	8000f7a <__aeabi_ddiv+0x4aa>
 8000dde:	4658      	mov	r0, fp
 8000de0:	f000 f9fa 	bl	80011d8 <__clzsi2>
 8000de4:	230b      	movs	r3, #11
 8000de6:	425b      	negs	r3, r3
 8000de8:	469c      	mov	ip, r3
 8000dea:	0002      	movs	r2, r0
 8000dec:	4484      	add	ip, r0
 8000dee:	4666      	mov	r6, ip
 8000df0:	231d      	movs	r3, #29
 8000df2:	1b9b      	subs	r3, r3, r6
 8000df4:	0026      	movs	r6, r4
 8000df6:	0011      	movs	r1, r2
 8000df8:	4658      	mov	r0, fp
 8000dfa:	40de      	lsrs	r6, r3
 8000dfc:	3908      	subs	r1, #8
 8000dfe:	4088      	lsls	r0, r1
 8000e00:	0033      	movs	r3, r6
 8000e02:	4303      	orrs	r3, r0
 8000e04:	4699      	mov	r9, r3
 8000e06:	0023      	movs	r3, r4
 8000e08:	408b      	lsls	r3, r1
 8000e0a:	4698      	mov	r8, r3
 8000e0c:	4b16      	ldr	r3, [pc, #88]	@ (8000e68 <__aeabi_ddiv+0x398>)
 8000e0e:	2400      	movs	r4, #0
 8000e10:	1a9b      	subs	r3, r3, r2
 8000e12:	469a      	mov	sl, r3
 8000e14:	2300      	movs	r3, #0
 8000e16:	9303      	str	r3, [sp, #12]
 8000e18:	e682      	b.n	8000b20 <__aeabi_ddiv+0x50>
 8000e1a:	465a      	mov	r2, fp
 8000e1c:	4302      	orrs	r2, r0
 8000e1e:	4691      	mov	r9, r2
 8000e20:	d12a      	bne.n	8000e78 <__aeabi_ddiv+0x3a8>
 8000e22:	2200      	movs	r2, #0
 8000e24:	469a      	mov	sl, r3
 8000e26:	2302      	movs	r3, #2
 8000e28:	4690      	mov	r8, r2
 8000e2a:	2408      	movs	r4, #8
 8000e2c:	9303      	str	r3, [sp, #12]
 8000e2e:	e677      	b.n	8000b20 <__aeabi_ddiv+0x50>
 8000e30:	465a      	mov	r2, fp
 8000e32:	9b00      	ldr	r3, [sp, #0]
 8000e34:	431a      	orrs	r2, r3
 8000e36:	4b0d      	ldr	r3, [pc, #52]	@ (8000e6c <__aeabi_ddiv+0x39c>)
 8000e38:	469c      	mov	ip, r3
 8000e3a:	44e2      	add	sl, ip
 8000e3c:	2a00      	cmp	r2, #0
 8000e3e:	d117      	bne.n	8000e70 <__aeabi_ddiv+0x3a0>
 8000e40:	2302      	movs	r3, #2
 8000e42:	431c      	orrs	r4, r3
 8000e44:	2300      	movs	r3, #0
 8000e46:	469b      	mov	fp, r3
 8000e48:	3302      	adds	r3, #2
 8000e4a:	e689      	b.n	8000b60 <__aeabi_ddiv+0x90>
 8000e4c:	000007ff 	.word	0x000007ff
 8000e50:	fffffc01 	.word	0xfffffc01
 8000e54:	080030d8 	.word	0x080030d8
 8000e58:	000003ff 	.word	0x000003ff
 8000e5c:	feffffff 	.word	0xfeffffff
 8000e60:	000007fe 	.word	0x000007fe
 8000e64:	000003f3 	.word	0x000003f3
 8000e68:	fffffc0d 	.word	0xfffffc0d
 8000e6c:	fffff801 	.word	0xfffff801
 8000e70:	2303      	movs	r3, #3
 8000e72:	0032      	movs	r2, r6
 8000e74:	431c      	orrs	r4, r3
 8000e76:	e673      	b.n	8000b60 <__aeabi_ddiv+0x90>
 8000e78:	469a      	mov	sl, r3
 8000e7a:	2303      	movs	r3, #3
 8000e7c:	46d9      	mov	r9, fp
 8000e7e:	240c      	movs	r4, #12
 8000e80:	9303      	str	r3, [sp, #12]
 8000e82:	e64d      	b.n	8000b20 <__aeabi_ddiv+0x50>
 8000e84:	2300      	movs	r3, #0
 8000e86:	4698      	mov	r8, r3
 8000e88:	469a      	mov	sl, r3
 8000e8a:	3301      	adds	r3, #1
 8000e8c:	2404      	movs	r4, #4
 8000e8e:	9303      	str	r3, [sp, #12]
 8000e90:	e646      	b.n	8000b20 <__aeabi_ddiv+0x50>
 8000e92:	2301      	movs	r3, #1
 8000e94:	431c      	orrs	r4, r3
 8000e96:	2300      	movs	r3, #0
 8000e98:	469b      	mov	fp, r3
 8000e9a:	3301      	adds	r3, #1
 8000e9c:	e660      	b.n	8000b60 <__aeabi_ddiv+0x90>
 8000e9e:	2300      	movs	r3, #0
 8000ea0:	2480      	movs	r4, #128	@ 0x80
 8000ea2:	4698      	mov	r8, r3
 8000ea4:	2600      	movs	r6, #0
 8000ea6:	4b92      	ldr	r3, [pc, #584]	@ (80010f0 <__aeabi_ddiv+0x620>)
 8000ea8:	0324      	lsls	r4, r4, #12
 8000eaa:	e671      	b.n	8000b90 <__aeabi_ddiv+0xc0>
 8000eac:	2201      	movs	r2, #1
 8000eae:	4252      	negs	r2, r2
 8000eb0:	2101      	movs	r1, #1
 8000eb2:	1ac9      	subs	r1, r1, r3
 8000eb4:	2938      	cmp	r1, #56	@ 0x38
 8000eb6:	dd00      	ble.n	8000eba <__aeabi_ddiv+0x3ea>
 8000eb8:	e666      	b.n	8000b88 <__aeabi_ddiv+0xb8>
 8000eba:	291f      	cmp	r1, #31
 8000ebc:	dc00      	bgt.n	8000ec0 <__aeabi_ddiv+0x3f0>
 8000ebe:	e0ab      	b.n	8001018 <__aeabi_ddiv+0x548>
 8000ec0:	201f      	movs	r0, #31
 8000ec2:	4240      	negs	r0, r0
 8000ec4:	1ac3      	subs	r3, r0, r3
 8000ec6:	4658      	mov	r0, fp
 8000ec8:	40d8      	lsrs	r0, r3
 8000eca:	0003      	movs	r3, r0
 8000ecc:	2920      	cmp	r1, #32
 8000ece:	d004      	beq.n	8000eda <__aeabi_ddiv+0x40a>
 8000ed0:	4658      	mov	r0, fp
 8000ed2:	4988      	ldr	r1, [pc, #544]	@ (80010f4 <__aeabi_ddiv+0x624>)
 8000ed4:	4451      	add	r1, sl
 8000ed6:	4088      	lsls	r0, r1
 8000ed8:	4302      	orrs	r2, r0
 8000eda:	1e51      	subs	r1, r2, #1
 8000edc:	418a      	sbcs	r2, r1
 8000ede:	431a      	orrs	r2, r3
 8000ee0:	2307      	movs	r3, #7
 8000ee2:	0019      	movs	r1, r3
 8000ee4:	2400      	movs	r4, #0
 8000ee6:	4011      	ands	r1, r2
 8000ee8:	4213      	tst	r3, r2
 8000eea:	d00c      	beq.n	8000f06 <__aeabi_ddiv+0x436>
 8000eec:	230f      	movs	r3, #15
 8000eee:	4013      	ands	r3, r2
 8000ef0:	2b04      	cmp	r3, #4
 8000ef2:	d100      	bne.n	8000ef6 <__aeabi_ddiv+0x426>
 8000ef4:	e0f9      	b.n	80010ea <__aeabi_ddiv+0x61a>
 8000ef6:	1d11      	adds	r1, r2, #4
 8000ef8:	4291      	cmp	r1, r2
 8000efa:	419b      	sbcs	r3, r3
 8000efc:	000a      	movs	r2, r1
 8000efe:	425b      	negs	r3, r3
 8000f00:	0759      	lsls	r1, r3, #29
 8000f02:	025b      	lsls	r3, r3, #9
 8000f04:	0b1c      	lsrs	r4, r3, #12
 8000f06:	08d2      	lsrs	r2, r2, #3
 8000f08:	430a      	orrs	r2, r1
 8000f0a:	4690      	mov	r8, r2
 8000f0c:	2300      	movs	r3, #0
 8000f0e:	e63f      	b.n	8000b90 <__aeabi_ddiv+0xc0>
 8000f10:	2480      	movs	r4, #128	@ 0x80
 8000f12:	464b      	mov	r3, r9
 8000f14:	0324      	lsls	r4, r4, #12
 8000f16:	4223      	tst	r3, r4
 8000f18:	d009      	beq.n	8000f2e <__aeabi_ddiv+0x45e>
 8000f1a:	465b      	mov	r3, fp
 8000f1c:	4223      	tst	r3, r4
 8000f1e:	d106      	bne.n	8000f2e <__aeabi_ddiv+0x45e>
 8000f20:	431c      	orrs	r4, r3
 8000f22:	0324      	lsls	r4, r4, #12
 8000f24:	002e      	movs	r6, r5
 8000f26:	4690      	mov	r8, r2
 8000f28:	4b71      	ldr	r3, [pc, #452]	@ (80010f0 <__aeabi_ddiv+0x620>)
 8000f2a:	0b24      	lsrs	r4, r4, #12
 8000f2c:	e630      	b.n	8000b90 <__aeabi_ddiv+0xc0>
 8000f2e:	2480      	movs	r4, #128	@ 0x80
 8000f30:	464b      	mov	r3, r9
 8000f32:	0324      	lsls	r4, r4, #12
 8000f34:	431c      	orrs	r4, r3
 8000f36:	0324      	lsls	r4, r4, #12
 8000f38:	9e02      	ldr	r6, [sp, #8]
 8000f3a:	4b6d      	ldr	r3, [pc, #436]	@ (80010f0 <__aeabi_ddiv+0x620>)
 8000f3c:	0b24      	lsrs	r4, r4, #12
 8000f3e:	e627      	b.n	8000b90 <__aeabi_ddiv+0xc0>
 8000f40:	2b00      	cmp	r3, #0
 8000f42:	d100      	bne.n	8000f46 <__aeabi_ddiv+0x476>
 8000f44:	e700      	b.n	8000d48 <__aeabi_ddiv+0x278>
 8000f46:	9800      	ldr	r0, [sp, #0]
 8000f48:	1e51      	subs	r1, r2, #1
 8000f4a:	4684      	mov	ip, r0
 8000f4c:	4464      	add	r4, ip
 8000f4e:	4284      	cmp	r4, r0
 8000f50:	d200      	bcs.n	8000f54 <__aeabi_ddiv+0x484>
 8000f52:	e084      	b.n	800105e <__aeabi_ddiv+0x58e>
 8000f54:	42bc      	cmp	r4, r7
 8000f56:	d200      	bcs.n	8000f5a <__aeabi_ddiv+0x48a>
 8000f58:	e0ae      	b.n	80010b8 <__aeabi_ddiv+0x5e8>
 8000f5a:	d100      	bne.n	8000f5e <__aeabi_ddiv+0x48e>
 8000f5c:	e0c1      	b.n	80010e2 <__aeabi_ddiv+0x612>
 8000f5e:	000a      	movs	r2, r1
 8000f60:	e6f0      	b.n	8000d44 <__aeabi_ddiv+0x274>
 8000f62:	4542      	cmp	r2, r8
 8000f64:	d900      	bls.n	8000f68 <__aeabi_ddiv+0x498>
 8000f66:	e62c      	b.n	8000bc2 <__aeabi_ddiv+0xf2>
 8000f68:	464b      	mov	r3, r9
 8000f6a:	07dc      	lsls	r4, r3, #31
 8000f6c:	0858      	lsrs	r0, r3, #1
 8000f6e:	4643      	mov	r3, r8
 8000f70:	085b      	lsrs	r3, r3, #1
 8000f72:	431c      	orrs	r4, r3
 8000f74:	4643      	mov	r3, r8
 8000f76:	07df      	lsls	r7, r3, #31
 8000f78:	e62a      	b.n	8000bd0 <__aeabi_ddiv+0x100>
 8000f7a:	f000 f92d 	bl	80011d8 <__clzsi2>
 8000f7e:	2315      	movs	r3, #21
 8000f80:	469c      	mov	ip, r3
 8000f82:	4484      	add	ip, r0
 8000f84:	0002      	movs	r2, r0
 8000f86:	4663      	mov	r3, ip
 8000f88:	3220      	adds	r2, #32
 8000f8a:	2b1c      	cmp	r3, #28
 8000f8c:	dc00      	bgt.n	8000f90 <__aeabi_ddiv+0x4c0>
 8000f8e:	e72e      	b.n	8000dee <__aeabi_ddiv+0x31e>
 8000f90:	0023      	movs	r3, r4
 8000f92:	3808      	subs	r0, #8
 8000f94:	4083      	lsls	r3, r0
 8000f96:	4699      	mov	r9, r3
 8000f98:	2300      	movs	r3, #0
 8000f9a:	4698      	mov	r8, r3
 8000f9c:	e736      	b.n	8000e0c <__aeabi_ddiv+0x33c>
 8000f9e:	f000 f91b 	bl	80011d8 <__clzsi2>
 8000fa2:	0002      	movs	r2, r0
 8000fa4:	0003      	movs	r3, r0
 8000fa6:	3215      	adds	r2, #21
 8000fa8:	3320      	adds	r3, #32
 8000faa:	2a1c      	cmp	r2, #28
 8000fac:	dc00      	bgt.n	8000fb0 <__aeabi_ddiv+0x4e0>
 8000fae:	e6fb      	b.n	8000da8 <__aeabi_ddiv+0x2d8>
 8000fb0:	9900      	ldr	r1, [sp, #0]
 8000fb2:	3808      	subs	r0, #8
 8000fb4:	4081      	lsls	r1, r0
 8000fb6:	2200      	movs	r2, #0
 8000fb8:	468b      	mov	fp, r1
 8000fba:	e702      	b.n	8000dc2 <__aeabi_ddiv+0x2f2>
 8000fbc:	9900      	ldr	r1, [sp, #0]
 8000fbe:	3b01      	subs	r3, #1
 8000fc0:	468c      	mov	ip, r1
 8000fc2:	4464      	add	r4, ip
 8000fc4:	42a1      	cmp	r1, r4
 8000fc6:	d900      	bls.n	8000fca <__aeabi_ddiv+0x4fa>
 8000fc8:	e69a      	b.n	8000d00 <__aeabi_ddiv+0x230>
 8000fca:	42a2      	cmp	r2, r4
 8000fcc:	d800      	bhi.n	8000fd0 <__aeabi_ddiv+0x500>
 8000fce:	e697      	b.n	8000d00 <__aeabi_ddiv+0x230>
 8000fd0:	1e83      	subs	r3, r0, #2
 8000fd2:	4464      	add	r4, ip
 8000fd4:	e694      	b.n	8000d00 <__aeabi_ddiv+0x230>
 8000fd6:	46ac      	mov	ip, r5
 8000fd8:	4461      	add	r1, ip
 8000fda:	3f01      	subs	r7, #1
 8000fdc:	428d      	cmp	r5, r1
 8000fde:	d900      	bls.n	8000fe2 <__aeabi_ddiv+0x512>
 8000fe0:	e680      	b.n	8000ce4 <__aeabi_ddiv+0x214>
 8000fe2:	428a      	cmp	r2, r1
 8000fe4:	d800      	bhi.n	8000fe8 <__aeabi_ddiv+0x518>
 8000fe6:	e67d      	b.n	8000ce4 <__aeabi_ddiv+0x214>
 8000fe8:	1e87      	subs	r7, r0, #2
 8000fea:	4461      	add	r1, ip
 8000fec:	e67a      	b.n	8000ce4 <__aeabi_ddiv+0x214>
 8000fee:	4285      	cmp	r5, r0
 8000ff0:	d000      	beq.n	8000ff4 <__aeabi_ddiv+0x524>
 8000ff2:	e65f      	b.n	8000cb4 <__aeabi_ddiv+0x1e4>
 8000ff4:	45b9      	cmp	r9, r7
 8000ff6:	d900      	bls.n	8000ffa <__aeabi_ddiv+0x52a>
 8000ff8:	e65c      	b.n	8000cb4 <__aeabi_ddiv+0x1e4>
 8000ffa:	e656      	b.n	8000caa <__aeabi_ddiv+0x1da>
 8000ffc:	42a2      	cmp	r2, r4
 8000ffe:	d800      	bhi.n	8001002 <__aeabi_ddiv+0x532>
 8001000:	e61a      	b.n	8000c38 <__aeabi_ddiv+0x168>
 8001002:	1e83      	subs	r3, r0, #2
 8001004:	4464      	add	r4, ip
 8001006:	e617      	b.n	8000c38 <__aeabi_ddiv+0x168>
 8001008:	428a      	cmp	r2, r1
 800100a:	d800      	bhi.n	800100e <__aeabi_ddiv+0x53e>
 800100c:	e600      	b.n	8000c10 <__aeabi_ddiv+0x140>
 800100e:	46ac      	mov	ip, r5
 8001010:	1e83      	subs	r3, r0, #2
 8001012:	4698      	mov	r8, r3
 8001014:	4461      	add	r1, ip
 8001016:	e5fb      	b.n	8000c10 <__aeabi_ddiv+0x140>
 8001018:	4837      	ldr	r0, [pc, #220]	@ (80010f8 <__aeabi_ddiv+0x628>)
 800101a:	0014      	movs	r4, r2
 800101c:	4450      	add	r0, sl
 800101e:	4082      	lsls	r2, r0
 8001020:	465b      	mov	r3, fp
 8001022:	0017      	movs	r7, r2
 8001024:	4083      	lsls	r3, r0
 8001026:	40cc      	lsrs	r4, r1
 8001028:	1e7a      	subs	r2, r7, #1
 800102a:	4197      	sbcs	r7, r2
 800102c:	4323      	orrs	r3, r4
 800102e:	433b      	orrs	r3, r7
 8001030:	001a      	movs	r2, r3
 8001032:	465b      	mov	r3, fp
 8001034:	40cb      	lsrs	r3, r1
 8001036:	0751      	lsls	r1, r2, #29
 8001038:	d009      	beq.n	800104e <__aeabi_ddiv+0x57e>
 800103a:	210f      	movs	r1, #15
 800103c:	4011      	ands	r1, r2
 800103e:	2904      	cmp	r1, #4
 8001040:	d005      	beq.n	800104e <__aeabi_ddiv+0x57e>
 8001042:	1d11      	adds	r1, r2, #4
 8001044:	4291      	cmp	r1, r2
 8001046:	4192      	sbcs	r2, r2
 8001048:	4252      	negs	r2, r2
 800104a:	189b      	adds	r3, r3, r2
 800104c:	000a      	movs	r2, r1
 800104e:	0219      	lsls	r1, r3, #8
 8001050:	d400      	bmi.n	8001054 <__aeabi_ddiv+0x584>
 8001052:	e755      	b.n	8000f00 <__aeabi_ddiv+0x430>
 8001054:	2200      	movs	r2, #0
 8001056:	2301      	movs	r3, #1
 8001058:	2400      	movs	r4, #0
 800105a:	4690      	mov	r8, r2
 800105c:	e598      	b.n	8000b90 <__aeabi_ddiv+0xc0>
 800105e:	000a      	movs	r2, r1
 8001060:	42bc      	cmp	r4, r7
 8001062:	d000      	beq.n	8001066 <__aeabi_ddiv+0x596>
 8001064:	e66e      	b.n	8000d44 <__aeabi_ddiv+0x274>
 8001066:	454b      	cmp	r3, r9
 8001068:	d000      	beq.n	800106c <__aeabi_ddiv+0x59c>
 800106a:	e66b      	b.n	8000d44 <__aeabi_ddiv+0x274>
 800106c:	e66c      	b.n	8000d48 <__aeabi_ddiv+0x278>
 800106e:	4b23      	ldr	r3, [pc, #140]	@ (80010fc <__aeabi_ddiv+0x62c>)
 8001070:	4a23      	ldr	r2, [pc, #140]	@ (8001100 <__aeabi_ddiv+0x630>)
 8001072:	4453      	add	r3, sl
 8001074:	4592      	cmp	sl, r2
 8001076:	da00      	bge.n	800107a <__aeabi_ddiv+0x5aa>
 8001078:	e718      	b.n	8000eac <__aeabi_ddiv+0x3dc>
 800107a:	2101      	movs	r1, #1
 800107c:	4249      	negs	r1, r1
 800107e:	1d0a      	adds	r2, r1, #4
 8001080:	428a      	cmp	r2, r1
 8001082:	4189      	sbcs	r1, r1
 8001084:	4249      	negs	r1, r1
 8001086:	448b      	add	fp, r1
 8001088:	e666      	b.n	8000d58 <__aeabi_ddiv+0x288>
 800108a:	210f      	movs	r1, #15
 800108c:	4011      	ands	r1, r2
 800108e:	2904      	cmp	r1, #4
 8001090:	d100      	bne.n	8001094 <__aeabi_ddiv+0x5c4>
 8001092:	e661      	b.n	8000d58 <__aeabi_ddiv+0x288>
 8001094:	0011      	movs	r1, r2
 8001096:	e7f2      	b.n	800107e <__aeabi_ddiv+0x5ae>
 8001098:	42bc      	cmp	r4, r7
 800109a:	d800      	bhi.n	800109e <__aeabi_ddiv+0x5ce>
 800109c:	e60a      	b.n	8000cb4 <__aeabi_ddiv+0x1e4>
 800109e:	2302      	movs	r3, #2
 80010a0:	425b      	negs	r3, r3
 80010a2:	469c      	mov	ip, r3
 80010a4:	9900      	ldr	r1, [sp, #0]
 80010a6:	444f      	add	r7, r9
 80010a8:	454f      	cmp	r7, r9
 80010aa:	419b      	sbcs	r3, r3
 80010ac:	44e3      	add	fp, ip
 80010ae:	468c      	mov	ip, r1
 80010b0:	425b      	negs	r3, r3
 80010b2:	4463      	add	r3, ip
 80010b4:	18c0      	adds	r0, r0, r3
 80010b6:	e5ff      	b.n	8000cb8 <__aeabi_ddiv+0x1e8>
 80010b8:	4649      	mov	r1, r9
 80010ba:	9d00      	ldr	r5, [sp, #0]
 80010bc:	0048      	lsls	r0, r1, #1
 80010be:	4548      	cmp	r0, r9
 80010c0:	4189      	sbcs	r1, r1
 80010c2:	46ac      	mov	ip, r5
 80010c4:	4249      	negs	r1, r1
 80010c6:	4461      	add	r1, ip
 80010c8:	4681      	mov	r9, r0
 80010ca:	3a02      	subs	r2, #2
 80010cc:	1864      	adds	r4, r4, r1
 80010ce:	e7c7      	b.n	8001060 <__aeabi_ddiv+0x590>
 80010d0:	2480      	movs	r4, #128	@ 0x80
 80010d2:	465b      	mov	r3, fp
 80010d4:	0324      	lsls	r4, r4, #12
 80010d6:	431c      	orrs	r4, r3
 80010d8:	0324      	lsls	r4, r4, #12
 80010da:	4690      	mov	r8, r2
 80010dc:	4b04      	ldr	r3, [pc, #16]	@ (80010f0 <__aeabi_ddiv+0x620>)
 80010de:	0b24      	lsrs	r4, r4, #12
 80010e0:	e556      	b.n	8000b90 <__aeabi_ddiv+0xc0>
 80010e2:	4599      	cmp	r9, r3
 80010e4:	d3e8      	bcc.n	80010b8 <__aeabi_ddiv+0x5e8>
 80010e6:	000a      	movs	r2, r1
 80010e8:	e7bd      	b.n	8001066 <__aeabi_ddiv+0x596>
 80010ea:	2300      	movs	r3, #0
 80010ec:	e708      	b.n	8000f00 <__aeabi_ddiv+0x430>
 80010ee:	46c0      	nop			@ (mov r8, r8)
 80010f0:	000007ff 	.word	0x000007ff
 80010f4:	0000043e 	.word	0x0000043e
 80010f8:	0000041e 	.word	0x0000041e
 80010fc:	000003ff 	.word	0x000003ff
 8001100:	fffffc02 	.word	0xfffffc02

08001104 <__aeabi_d2iz>:
 8001104:	000b      	movs	r3, r1
 8001106:	0002      	movs	r2, r0
 8001108:	b570      	push	{r4, r5, r6, lr}
 800110a:	4d16      	ldr	r5, [pc, #88]	@ (8001164 <__aeabi_d2iz+0x60>)
 800110c:	030c      	lsls	r4, r1, #12
 800110e:	b082      	sub	sp, #8
 8001110:	0049      	lsls	r1, r1, #1
 8001112:	2000      	movs	r0, #0
 8001114:	9200      	str	r2, [sp, #0]
 8001116:	9301      	str	r3, [sp, #4]
 8001118:	0b24      	lsrs	r4, r4, #12
 800111a:	0d49      	lsrs	r1, r1, #21
 800111c:	0fde      	lsrs	r6, r3, #31
 800111e:	42a9      	cmp	r1, r5
 8001120:	dd04      	ble.n	800112c <__aeabi_d2iz+0x28>
 8001122:	4811      	ldr	r0, [pc, #68]	@ (8001168 <__aeabi_d2iz+0x64>)
 8001124:	4281      	cmp	r1, r0
 8001126:	dd03      	ble.n	8001130 <__aeabi_d2iz+0x2c>
 8001128:	4b10      	ldr	r3, [pc, #64]	@ (800116c <__aeabi_d2iz+0x68>)
 800112a:	18f0      	adds	r0, r6, r3
 800112c:	b002      	add	sp, #8
 800112e:	bd70      	pop	{r4, r5, r6, pc}
 8001130:	2080      	movs	r0, #128	@ 0x80
 8001132:	0340      	lsls	r0, r0, #13
 8001134:	4320      	orrs	r0, r4
 8001136:	4c0e      	ldr	r4, [pc, #56]	@ (8001170 <__aeabi_d2iz+0x6c>)
 8001138:	1a64      	subs	r4, r4, r1
 800113a:	2c1f      	cmp	r4, #31
 800113c:	dd08      	ble.n	8001150 <__aeabi_d2iz+0x4c>
 800113e:	4b0d      	ldr	r3, [pc, #52]	@ (8001174 <__aeabi_d2iz+0x70>)
 8001140:	1a5b      	subs	r3, r3, r1
 8001142:	40d8      	lsrs	r0, r3
 8001144:	0003      	movs	r3, r0
 8001146:	4258      	negs	r0, r3
 8001148:	2e00      	cmp	r6, #0
 800114a:	d1ef      	bne.n	800112c <__aeabi_d2iz+0x28>
 800114c:	0018      	movs	r0, r3
 800114e:	e7ed      	b.n	800112c <__aeabi_d2iz+0x28>
 8001150:	4b09      	ldr	r3, [pc, #36]	@ (8001178 <__aeabi_d2iz+0x74>)
 8001152:	9a00      	ldr	r2, [sp, #0]
 8001154:	469c      	mov	ip, r3
 8001156:	0003      	movs	r3, r0
 8001158:	4461      	add	r1, ip
 800115a:	408b      	lsls	r3, r1
 800115c:	40e2      	lsrs	r2, r4
 800115e:	4313      	orrs	r3, r2
 8001160:	e7f1      	b.n	8001146 <__aeabi_d2iz+0x42>
 8001162:	46c0      	nop			@ (mov r8, r8)
 8001164:	000003fe 	.word	0x000003fe
 8001168:	0000041d 	.word	0x0000041d
 800116c:	7fffffff 	.word	0x7fffffff
 8001170:	00000433 	.word	0x00000433
 8001174:	00000413 	.word	0x00000413
 8001178:	fffffbed 	.word	0xfffffbed

0800117c <__aeabi_i2d>:
 800117c:	b570      	push	{r4, r5, r6, lr}
 800117e:	2800      	cmp	r0, #0
 8001180:	d016      	beq.n	80011b0 <__aeabi_i2d+0x34>
 8001182:	17c3      	asrs	r3, r0, #31
 8001184:	18c5      	adds	r5, r0, r3
 8001186:	405d      	eors	r5, r3
 8001188:	0fc4      	lsrs	r4, r0, #31
 800118a:	0028      	movs	r0, r5
 800118c:	f000 f824 	bl	80011d8 <__clzsi2>
 8001190:	4b10      	ldr	r3, [pc, #64]	@ (80011d4 <__aeabi_i2d+0x58>)
 8001192:	1a1b      	subs	r3, r3, r0
 8001194:	055b      	lsls	r3, r3, #21
 8001196:	0d5b      	lsrs	r3, r3, #21
 8001198:	280a      	cmp	r0, #10
 800119a:	dc14      	bgt.n	80011c6 <__aeabi_i2d+0x4a>
 800119c:	0002      	movs	r2, r0
 800119e:	002e      	movs	r6, r5
 80011a0:	3215      	adds	r2, #21
 80011a2:	4096      	lsls	r6, r2
 80011a4:	220b      	movs	r2, #11
 80011a6:	1a12      	subs	r2, r2, r0
 80011a8:	40d5      	lsrs	r5, r2
 80011aa:	032d      	lsls	r5, r5, #12
 80011ac:	0b2d      	lsrs	r5, r5, #12
 80011ae:	e003      	b.n	80011b8 <__aeabi_i2d+0x3c>
 80011b0:	2400      	movs	r4, #0
 80011b2:	2300      	movs	r3, #0
 80011b4:	2500      	movs	r5, #0
 80011b6:	2600      	movs	r6, #0
 80011b8:	051b      	lsls	r3, r3, #20
 80011ba:	432b      	orrs	r3, r5
 80011bc:	07e4      	lsls	r4, r4, #31
 80011be:	4323      	orrs	r3, r4
 80011c0:	0030      	movs	r0, r6
 80011c2:	0019      	movs	r1, r3
 80011c4:	bd70      	pop	{r4, r5, r6, pc}
 80011c6:	380b      	subs	r0, #11
 80011c8:	4085      	lsls	r5, r0
 80011ca:	032d      	lsls	r5, r5, #12
 80011cc:	2600      	movs	r6, #0
 80011ce:	0b2d      	lsrs	r5, r5, #12
 80011d0:	e7f2      	b.n	80011b8 <__aeabi_i2d+0x3c>
 80011d2:	46c0      	nop			@ (mov r8, r8)
 80011d4:	0000041e 	.word	0x0000041e

080011d8 <__clzsi2>:
 80011d8:	211c      	movs	r1, #28
 80011da:	2301      	movs	r3, #1
 80011dc:	041b      	lsls	r3, r3, #16
 80011de:	4298      	cmp	r0, r3
 80011e0:	d301      	bcc.n	80011e6 <__clzsi2+0xe>
 80011e2:	0c00      	lsrs	r0, r0, #16
 80011e4:	3910      	subs	r1, #16
 80011e6:	0a1b      	lsrs	r3, r3, #8
 80011e8:	4298      	cmp	r0, r3
 80011ea:	d301      	bcc.n	80011f0 <__clzsi2+0x18>
 80011ec:	0a00      	lsrs	r0, r0, #8
 80011ee:	3908      	subs	r1, #8
 80011f0:	091b      	lsrs	r3, r3, #4
 80011f2:	4298      	cmp	r0, r3
 80011f4:	d301      	bcc.n	80011fa <__clzsi2+0x22>
 80011f6:	0900      	lsrs	r0, r0, #4
 80011f8:	3904      	subs	r1, #4
 80011fa:	a202      	add	r2, pc, #8	@ (adr r2, 8001204 <__clzsi2+0x2c>)
 80011fc:	5c10      	ldrb	r0, [r2, r0]
 80011fe:	1840      	adds	r0, r0, r1
 8001200:	4770      	bx	lr
 8001202:	46c0      	nop			@ (mov r8, r8)
 8001204:	02020304 	.word	0x02020304
 8001208:	01010101 	.word	0x01010101
	...

08001214 <__ctzsi2>:
 8001214:	4241      	negs	r1, r0
 8001216:	4008      	ands	r0, r1
 8001218:	211c      	movs	r1, #28
 800121a:	2301      	movs	r3, #1
 800121c:	041b      	lsls	r3, r3, #16
 800121e:	4298      	cmp	r0, r3
 8001220:	d301      	bcc.n	8001226 <__ctzsi2+0x12>
 8001222:	0c00      	lsrs	r0, r0, #16
 8001224:	3910      	subs	r1, #16
 8001226:	0a1b      	lsrs	r3, r3, #8
 8001228:	4298      	cmp	r0, r3
 800122a:	d301      	bcc.n	8001230 <__ctzsi2+0x1c>
 800122c:	0a00      	lsrs	r0, r0, #8
 800122e:	3908      	subs	r1, #8
 8001230:	091b      	lsrs	r3, r3, #4
 8001232:	4298      	cmp	r0, r3
 8001234:	d301      	bcc.n	800123a <__ctzsi2+0x26>
 8001236:	0900      	lsrs	r0, r0, #4
 8001238:	3904      	subs	r1, #4
 800123a:	a202      	add	r2, pc, #8	@ (adr r2, 8001244 <__ctzsi2+0x30>)
 800123c:	5c10      	ldrb	r0, [r2, r0]
 800123e:	1a40      	subs	r0, r0, r1
 8001240:	4770      	bx	lr
 8001242:	46c0      	nop			@ (mov r8, r8)
 8001244:	1d1d1c1b 	.word	0x1d1d1c1b
 8001248:	1e1e1e1e 	.word	0x1e1e1e1e
 800124c:	1f1f1f1f 	.word	0x1f1f1f1f
 8001250:	1f1f1f1f 	.word	0x1f1f1f1f

08001254 <GPIO_EnableOutput>:
{
	GPIO_Init(pins, GPIO_Mode_Analog);
}

static inline void GPIO_EnableOutput(GPIO_Pin_t pins, GPIO_State_t state)
{
 8001254:	b580      	push	{r7, lr}
 8001256:	b082      	sub	sp, #8
 8001258:	af00      	add	r7, sp, #0
 800125a:	6078      	str	r0, [r7, #4]
 800125c:	000a      	movs	r2, r1
 800125e:	1cfb      	adds	r3, r7, #3
 8001260:	701a      	strb	r2, [r3, #0]
	GPIO_Write(pins, state);
 8001262:	1cfb      	adds	r3, r7, #3
 8001264:	781a      	ldrb	r2, [r3, #0]
 8001266:	687b      	ldr	r3, [r7, #4]
 8001268:	0011      	movs	r1, r2
 800126a:	0018      	movs	r0, r3
 800126c:	f001 f9fe 	bl	800266c <GPIO_Write>
	GPIO_Init(pins, GPIO_Mode_Output);
 8001270:	687b      	ldr	r3, [r7, #4]
 8001272:	2101      	movs	r1, #1
 8001274:	0018      	movs	r0, r3
 8001276:	f001 fa59 	bl	800272c <GPIO_Init>
}
 800127a:	46c0      	nop			@ (mov r8, r8)
 800127c:	46bd      	mov	sp, r7
 800127e:	b002      	add	sp, #8
 8001280:	bd80      	pop	{r7, pc}
	...

08001284 <LED_Init>:

/*
 * Handles Initialization of the LED Module
 */
void LED_Init (void)
{
 8001284:	b580      	push	{r7, lr}
 8001286:	af00      	add	r7, sp, #0
	#if defined(LED_PWR_Pin)
	GPIO_EnableOutput(LED_PWR_Pin, LED_ON);
	#endif

	GPIO_EnableOutput(LED_M1_Pin, LED_OFF);
 8001288:	2100      	movs	r1, #0
 800128a:	2001      	movs	r0, #1
 800128c:	f7ff ffe2 	bl	8001254 <GPIO_EnableOutput>
	GPIO_EnableOutput(LED_M2_Pin, LED_OFF);
 8001290:	4b03      	ldr	r3, [pc, #12]	@ (80012a0 <LED_Init+0x1c>)
 8001292:	2100      	movs	r1, #0
 8001294:	0018      	movs	r0, r3
 8001296:	f7ff ffdd 	bl	8001254 <GPIO_EnableOutput>
}
 800129a:	46c0      	nop			@ (mov r8, r8)
 800129c:	46bd      	mov	sp, r7
 800129e:	bd80      	pop	{r7, pc}
 80012a0:	00010001 	.word	0x00010001

080012a4 <GPIO_EnableInput>:
{
 80012a4:	b580      	push	{r7, lr}
 80012a6:	b082      	sub	sp, #8
 80012a8:	af00      	add	r7, sp, #0
 80012aa:	6078      	str	r0, [r7, #4]
 80012ac:	000a      	movs	r2, r1
 80012ae:	1cfb      	adds	r3, r7, #3
 80012b0:	701a      	strb	r2, [r3, #0]
	GPIO_Init(pins, GPIO_Mode_Input | pull);
 80012b2:	1cfb      	adds	r3, r7, #3
 80012b4:	781b      	ldrb	r3, [r3, #0]
 80012b6:	b29a      	uxth	r2, r3
 80012b8:	687b      	ldr	r3, [r7, #4]
 80012ba:	0011      	movs	r1, r2
 80012bc:	0018      	movs	r0, r3
 80012be:	f001 fa35 	bl	800272c <GPIO_Init>
}
 80012c2:	46c0      	nop			@ (mov r8, r8)
 80012c4:	46bd      	mov	sp, r7
 80012c6:	b002      	add	sp, #8
 80012c8:	bd80      	pop	{r7, pc}

080012ca <GPIO_EnableOutput>:
{
 80012ca:	b580      	push	{r7, lr}
 80012cc:	b082      	sub	sp, #8
 80012ce:	af00      	add	r7, sp, #0
 80012d0:	6078      	str	r0, [r7, #4]
 80012d2:	000a      	movs	r2, r1
 80012d4:	1cfb      	adds	r3, r7, #3
 80012d6:	701a      	strb	r2, [r3, #0]
	GPIO_Write(pins, state);
 80012d8:	1cfb      	adds	r3, r7, #3
 80012da:	781a      	ldrb	r2, [r3, #0]
 80012dc:	687b      	ldr	r3, [r7, #4]
 80012de:	0011      	movs	r1, r2
 80012e0:	0018      	movs	r0, r3
 80012e2:	f001 f9c3 	bl	800266c <GPIO_Write>
	GPIO_Init(pins, GPIO_Mode_Output);
 80012e6:	687b      	ldr	r3, [r7, #4]
 80012e8:	2101      	movs	r1, #1
 80012ea:	0018      	movs	r0, r3
 80012ec:	f001 fa1e 	bl	800272c <GPIO_Init>
}
 80012f0:	46c0      	nop			@ (mov r8, r8)
 80012f2:	46bd      	mov	sp, r7
 80012f4:	b002      	add	sp, #8
 80012f6:	bd80      	pop	{r7, pc}

080012f8 <MOTOR_Init>:

/*
 *
 */
void MOTOR_Init ( void )
{
 80012f8:	b580      	push	{r7, lr}
 80012fa:	b082      	sub	sp, #8
 80012fc:	af00      	add	r7, sp, #0
	// FUNCTION VARAIBLES
	uint8_t tx[2] = {0};
 80012fe:	1d3b      	adds	r3, r7, #4
 8001300:	2200      	movs	r2, #0
 8001302:	801a      	strh	r2, [r3, #0]

	// ENABLE SPI MODULE FUNCTIONALITY
	SPI_Init( SPI_1, 8000000, SPI_Mode_1 );
 8001304:	4ba7      	ldr	r3, [pc, #668]	@ (80015a4 <MOTOR_Init+0x2ac>)
 8001306:	681b      	ldr	r3, [r3, #0]
 8001308:	49a7      	ldr	r1, [pc, #668]	@ (80015a8 <MOTOR_Init+0x2b0>)
 800130a:	2201      	movs	r2, #1
 800130c:	0018      	movs	r0, r3
 800130e:	f001 fc23 	bl	8002b58 <SPI_Init>

	// ENABLE GPIO FOR MOTOR A
	GPIO_EnableOutput(	MOTORA_Select,	GPIO_PIN_SET );
 8001312:	2381      	movs	r3, #129	@ 0x81
 8001314:	025b      	lsls	r3, r3, #9
 8001316:	2101      	movs	r1, #1
 8001318:	0018      	movs	r0, r3
 800131a:	f7ff ffd6 	bl	80012ca <GPIO_EnableOutput>
	GPIO_Init( 			MOTORA_Sense, 	GPIO_Mode_Analog );
 800131e:	2380      	movs	r3, #128	@ 0x80
 8001320:	011b      	lsls	r3, r3, #4
 8001322:	2103      	movs	r1, #3
 8001324:	0018      	movs	r0, r3
 8001326:	f001 fa01 	bl	800272c <GPIO_Init>
	GPIO_EnableInput(	MOTORA_Fault, 	GPIO_Pull_Up);
 800132a:	4ba0      	ldr	r3, [pc, #640]	@ (80015ac <MOTOR_Init+0x2b4>)
 800132c:	2110      	movs	r1, #16
 800132e:	0018      	movs	r0, r3
 8001330:	f7ff ffb8 	bl	80012a4 <GPIO_EnableInput>

	// ENABLE GPIO FOR MOTOR B
	GPIO_EnableOutput(	MOTORB_Select,	GPIO_PIN_SET );
 8001334:	2380      	movs	r3, #128	@ 0x80
 8001336:	021b      	lsls	r3, r3, #8
 8001338:	2101      	movs	r1, #1
 800133a:	0018      	movs	r0, r3
 800133c:	f7ff ffc5 	bl	80012ca <GPIO_EnableOutput>
	GPIO_Init( 			MOTORB_Sense, 	GPIO_Mode_Analog );
 8001340:	2380      	movs	r3, #128	@ 0x80
 8001342:	015b      	lsls	r3, r3, #5
 8001344:	2103      	movs	r1, #3
 8001346:	0018      	movs	r0, r3
 8001348:	f001 f9f0 	bl	800272c <GPIO_Init>
	GPIO_EnableInput(	MOTORB_Fault, 	GPIO_Pull_Up );
 800134c:	4b98      	ldr	r3, [pc, #608]	@ (80015b0 <MOTOR_Init+0x2b8>)
 800134e:	2110      	movs	r1, #16
 8001350:	0018      	movs	r0, r3
 8001352:	f7ff ffa7 	bl	80012a4 <GPIO_EnableInput>

	// RETRIEVE DRIVE CONFIG FROM FLASH
	FPROM_Read( CONFIG_FPROM_OFFSET, &config, sizeof(config) );
 8001356:	4b97      	ldr	r3, [pc, #604]	@ (80015b4 <MOTOR_Init+0x2bc>)
 8001358:	221c      	movs	r2, #28
 800135a:	0019      	movs	r1, r3
 800135c:	2000      	movs	r0, #0
 800135e:	f000 fe4d 	bl	8001ffc <FPROM_Read>

	// RETRIEVE POINTER TO RADIO DATA
	dataPtr = RADIO_getDataPtr();
 8001362:	f000 fa89 	bl	8001878 <RADIO_getDataPtr>
 8001366:	0002      	movs	r2, r0
 8001368:	4b93      	ldr	r3, [pc, #588]	@ (80015b8 <MOTOR_Init+0x2c0>)
 800136a:	601a      	str	r2, [r3, #0]

	// WRITE COMMAND REGISTER
	//	- Reset nFAULT Pin From Startup
	// 	- SET SPI_IN_LOCK
	// 	- RESET REG_LOCK
	tx[0] = 0x08;							// address = 0x08
 800136c:	1d3b      	adds	r3, r7, #4
 800136e:	2208      	movs	r2, #8
 8001370:	701a      	strb	r2, [r3, #0]
	tx[1] = 0x80;							// default = 0x09
 8001372:	1d3b      	adds	r3, r7, #4
 8001374:	2280      	movs	r2, #128	@ 0x80
 8001376:	705a      	strb	r2, [r3, #1]
	GPIO_Reset( MOTORA_Select );
 8001378:	2381      	movs	r3, #129	@ 0x81
 800137a:	025b      	lsls	r3, r3, #9
 800137c:	0018      	movs	r0, r3
 800137e:	f001 fa5f 	bl	8002840 <GPIO_Reset>
	SPI_Write( SPI_1, tx, TX_BUFF_SIZE );
 8001382:	4b88      	ldr	r3, [pc, #544]	@ (80015a4 <MOTOR_Init+0x2ac>)
 8001384:	681b      	ldr	r3, [r3, #0]
 8001386:	1d39      	adds	r1, r7, #4
 8001388:	2202      	movs	r2, #2
 800138a:	0018      	movs	r0, r3
 800138c:	f001 fc2c 	bl	8002be8 <SPI_Write>
	GPIO_Set( MOTORA_Select );
 8001390:	2381      	movs	r3, #129	@ 0x81
 8001392:	025b      	lsls	r3, r3, #9
 8001394:	0018      	movs	r0, r3
 8001396:	f001 fa42 	bl	800281e <GPIO_Set>
	GPIO_Reset( MOTORB_Select );
 800139a:	2380      	movs	r3, #128	@ 0x80
 800139c:	021b      	lsls	r3, r3, #8
 800139e:	0018      	movs	r0, r3
 80013a0:	f001 fa4e 	bl	8002840 <GPIO_Reset>
	SPI_Write( SPI_1, tx, TX_BUFF_SIZE );
 80013a4:	4b7f      	ldr	r3, [pc, #508]	@ (80015a4 <MOTOR_Init+0x2ac>)
 80013a6:	681b      	ldr	r3, [r3, #0]
 80013a8:	1d39      	adds	r1, r7, #4
 80013aa:	2202      	movs	r2, #2
 80013ac:	0018      	movs	r0, r3
 80013ae:	f001 fc1b 	bl	8002be8 <SPI_Write>
	GPIO_Set( MOTORB_Select );
 80013b2:	2380      	movs	r3, #128	@ 0x80
 80013b4:	021b      	lsls	r3, r3, #8
 80013b6:	0018      	movs	r0, r3
 80013b8:	f001 fa31 	bl	800281e <GPIO_Set>
	//	- Set VMOV_SEL -- NOT YET IMPLEMENTED
	//	- Set OCP_RETRY
	//	- Set TSD_RETRY
	//	- Set VMOV_RETRY (Includes VMUV Retry)
	// 	- Set OLA_RETRY
	tx[0] = 0x0A;							// address = 0x0A
 80013bc:	1d3b      	adds	r3, r7, #4
 80013be:	220a      	movs	r2, #10
 80013c0:	701a      	strb	r2, [r3, #0]
	tx[1] = 0x10; 							// default = 0x10
 80013c2:	1d3b      	adds	r3, r7, #4
 80013c4:	2210      	movs	r2, #16
 80013c6:	705a      	strb	r2, [r3, #1]
	GPIO_Reset( MOTORA_Select );
 80013c8:	2381      	movs	r3, #129	@ 0x81
 80013ca:	025b      	lsls	r3, r3, #9
 80013cc:	0018      	movs	r0, r3
 80013ce:	f001 fa37 	bl	8002840 <GPIO_Reset>
	SPI_Write( SPI_1, tx, TX_BUFF_SIZE );
 80013d2:	4b74      	ldr	r3, [pc, #464]	@ (80015a4 <MOTOR_Init+0x2ac>)
 80013d4:	681b      	ldr	r3, [r3, #0]
 80013d6:	1d39      	adds	r1, r7, #4
 80013d8:	2202      	movs	r2, #2
 80013da:	0018      	movs	r0, r3
 80013dc:	f001 fc04 	bl	8002be8 <SPI_Write>
	GPIO_Set( MOTORA_Select );
 80013e0:	2381      	movs	r3, #129	@ 0x81
 80013e2:	025b      	lsls	r3, r3, #9
 80013e4:	0018      	movs	r0, r3
 80013e6:	f001 fa1a 	bl	800281e <GPIO_Set>
	GPIO_Reset( MOTORB_Select );
 80013ea:	2380      	movs	r3, #128	@ 0x80
 80013ec:	021b      	lsls	r3, r3, #8
 80013ee:	0018      	movs	r0, r3
 80013f0:	f001 fa26 	bl	8002840 <GPIO_Reset>
	SPI_Write( SPI_1, tx, TX_BUFF_SIZE );
 80013f4:	4b6b      	ldr	r3, [pc, #428]	@ (80015a4 <MOTOR_Init+0x2ac>)
 80013f6:	681b      	ldr	r3, [r3, #0]
 80013f8:	1d39      	adds	r1, r7, #4
 80013fa:	2202      	movs	r2, #2
 80013fc:	0018      	movs	r0, r3
 80013fe:	f001 fbf3 	bl	8002be8 <SPI_Write>
	GPIO_Set( MOTORB_Select );
 8001402:	2380      	movs	r3, #128	@ 0x80
 8001404:	021b      	lsls	r3, r3, #8
 8001406:	0018      	movs	r0, r3
 8001408:	f001 fa09 	bl	800281e <GPIO_Set>
	// TODO: Actually implement S_TRIP. Implement Check here because this isnt notified in FAULT Register

	// WRITE CONFIG2 REGISTER
	//	- Set S_DIAG
	//	- Set S_ITRIP
	tx[0] = 0x0B;							// address = 0x0B
 800140c:	1d3b      	adds	r3, r7, #4
 800140e:	220b      	movs	r2, #11
 8001410:	701a      	strb	r2, [r3, #0]
	tx[1] = 0x00; 							// default = 0x00
 8001412:	1d3b      	adds	r3, r7, #4
 8001414:	2200      	movs	r2, #0
 8001416:	705a      	strb	r2, [r3, #1]
	GPIO_Reset( MOTORA_Select );
 8001418:	2381      	movs	r3, #129	@ 0x81
 800141a:	025b      	lsls	r3, r3, #9
 800141c:	0018      	movs	r0, r3
 800141e:	f001 fa0f 	bl	8002840 <GPIO_Reset>
	SPI_Write( SPI_1, tx, TX_BUFF_SIZE );
 8001422:	4b60      	ldr	r3, [pc, #384]	@ (80015a4 <MOTOR_Init+0x2ac>)
 8001424:	681b      	ldr	r3, [r3, #0]
 8001426:	1d39      	adds	r1, r7, #4
 8001428:	2202      	movs	r2, #2
 800142a:	0018      	movs	r0, r3
 800142c:	f001 fbdc 	bl	8002be8 <SPI_Write>
	GPIO_Set( MOTORA_Select );
 8001430:	2381      	movs	r3, #129	@ 0x81
 8001432:	025b      	lsls	r3, r3, #9
 8001434:	0018      	movs	r0, r3
 8001436:	f001 f9f2 	bl	800281e <GPIO_Set>
	GPIO_Reset( MOTORB_Select );
 800143a:	2380      	movs	r3, #128	@ 0x80
 800143c:	021b      	lsls	r3, r3, #8
 800143e:	0018      	movs	r0, r3
 8001440:	f001 f9fe 	bl	8002840 <GPIO_Reset>
	SPI_Write( SPI_1, tx, TX_BUFF_SIZE );
 8001444:	4b57      	ldr	r3, [pc, #348]	@ (80015a4 <MOTOR_Init+0x2ac>)
 8001446:	681b      	ldr	r3, [r3, #0]
 8001448:	1d39      	adds	r1, r7, #4
 800144a:	2202      	movs	r2, #2
 800144c:	0018      	movs	r0, r3
 800144e:	f001 fbcb 	bl	8002be8 <SPI_Write>
	GPIO_Set( MOTORB_Select );
 8001452:	2380      	movs	r3, #128	@ 0x80
 8001454:	021b      	lsls	r3, r3, #8
 8001456:	0018      	movs	r0, r3
 8001458:	f001 f9e1 	bl	800281e <GPIO_Set>

	// WRITE CONFIG3 REGISTER
	//	- Set S_MODE as PH/EN mode
	tx[0] = 0x0C;							// address = 0x0C
 800145c:	1d3b      	adds	r3, r7, #4
 800145e:	220c      	movs	r2, #12
 8001460:	701a      	strb	r2, [r3, #0]
	tx[1] = 0x40; 							// default = 0x40
 8001462:	1d3b      	adds	r3, r7, #4
 8001464:	2240      	movs	r2, #64	@ 0x40
 8001466:	705a      	strb	r2, [r3, #1]
	GPIO_Reset( MOTORA_Select );
 8001468:	2381      	movs	r3, #129	@ 0x81
 800146a:	025b      	lsls	r3, r3, #9
 800146c:	0018      	movs	r0, r3
 800146e:	f001 f9e7 	bl	8002840 <GPIO_Reset>
	SPI_Write( SPI_1, tx, TX_BUFF_SIZE );
 8001472:	4b4c      	ldr	r3, [pc, #304]	@ (80015a4 <MOTOR_Init+0x2ac>)
 8001474:	681b      	ldr	r3, [r3, #0]
 8001476:	1d39      	adds	r1, r7, #4
 8001478:	2202      	movs	r2, #2
 800147a:	0018      	movs	r0, r3
 800147c:	f001 fbb4 	bl	8002be8 <SPI_Write>
	GPIO_Set( MOTORA_Select );
 8001480:	2381      	movs	r3, #129	@ 0x81
 8001482:	025b      	lsls	r3, r3, #9
 8001484:	0018      	movs	r0, r3
 8001486:	f001 f9ca 	bl	800281e <GPIO_Set>
	GPIO_Reset( MOTORB_Select );
 800148a:	2380      	movs	r3, #128	@ 0x80
 800148c:	021b      	lsls	r3, r3, #8
 800148e:	0018      	movs	r0, r3
 8001490:	f001 f9d6 	bl	8002840 <GPIO_Reset>
	SPI_Write( SPI_1, tx, TX_BUFF_SIZE );
 8001494:	4b43      	ldr	r3, [pc, #268]	@ (80015a4 <MOTOR_Init+0x2ac>)
 8001496:	681b      	ldr	r3, [r3, #0]
 8001498:	1d39      	adds	r1, r7, #4
 800149a:	2202      	movs	r2, #2
 800149c:	0018      	movs	r0, r3
 800149e:	f001 fba3 	bl	8002be8 <SPI_Write>
	GPIO_Set( MOTORB_Select );
 80014a2:	2380      	movs	r3, #128	@ 0x80
 80014a4:	021b      	lsls	r3, r3, #8
 80014a6:	0018      	movs	r0, r3
 80014a8:	f001 f9b9 	bl	800281e <GPIO_Set>

	// WRITE CONFIG4 REGISTER
	//	- Set DRVOFF_SEL, EN_IN_SEL, and PH_IN2_SEL registers as logical OR with I/P
	tx[0] = 0x0D;							// address = 0x0D
 80014ac:	1d3b      	adds	r3, r7, #4
 80014ae:	220d      	movs	r2, #13
 80014b0:	701a      	strb	r2, [r3, #0]
	tx[1] = 0x00; 							// default = 0x04
 80014b2:	1d3b      	adds	r3, r7, #4
 80014b4:	2200      	movs	r2, #0
 80014b6:	705a      	strb	r2, [r3, #1]
	GPIO_Reset( MOTORA_Select );
 80014b8:	2381      	movs	r3, #129	@ 0x81
 80014ba:	025b      	lsls	r3, r3, #9
 80014bc:	0018      	movs	r0, r3
 80014be:	f001 f9bf 	bl	8002840 <GPIO_Reset>
	SPI_Write( SPI_1, tx, TX_BUFF_SIZE );
 80014c2:	4b38      	ldr	r3, [pc, #224]	@ (80015a4 <MOTOR_Init+0x2ac>)
 80014c4:	681b      	ldr	r3, [r3, #0]
 80014c6:	1d39      	adds	r1, r7, #4
 80014c8:	2202      	movs	r2, #2
 80014ca:	0018      	movs	r0, r3
 80014cc:	f001 fb8c 	bl	8002be8 <SPI_Write>
	GPIO_Set( MOTORA_Select );
 80014d0:	2381      	movs	r3, #129	@ 0x81
 80014d2:	025b      	lsls	r3, r3, #9
 80014d4:	0018      	movs	r0, r3
 80014d6:	f001 f9a2 	bl	800281e <GPIO_Set>
	GPIO_Reset( MOTORB_Select );
 80014da:	2380      	movs	r3, #128	@ 0x80
 80014dc:	021b      	lsls	r3, r3, #8
 80014de:	0018      	movs	r0, r3
 80014e0:	f001 f9ae 	bl	8002840 <GPIO_Reset>
	SPI_Write( SPI_1, tx, TX_BUFF_SIZE );
 80014e4:	4b2f      	ldr	r3, [pc, #188]	@ (80015a4 <MOTOR_Init+0x2ac>)
 80014e6:	681b      	ldr	r3, [r3, #0]
 80014e8:	1d39      	adds	r1, r7, #4
 80014ea:	2202      	movs	r2, #2
 80014ec:	0018      	movs	r0, r3
 80014ee:	f001 fb7b 	bl	8002be8 <SPI_Write>
	GPIO_Set( MOTORB_Select );
 80014f2:	2380      	movs	r3, #128	@ 0x80
 80014f4:	021b      	lsls	r3, r3, #8
 80014f6:	0018      	movs	r0, r3
 80014f8:	f001 f991 	bl	800281e <GPIO_Set>

	// WRITE COMMAND REGISTER
	// 	- RESET SPI_IN_LOCK
	// 	- SET REG_LOCK
	tx[0] = 0x08;							// address = 0x08
 80014fc:	1d3b      	adds	r3, r7, #4
 80014fe:	2208      	movs	r2, #8
 8001500:	701a      	strb	r2, [r3, #0]
	tx[1] = 0x12;							// default = 0x09
 8001502:	1d3b      	adds	r3, r7, #4
 8001504:	2212      	movs	r2, #18
 8001506:	705a      	strb	r2, [r3, #1]
	GPIO_Reset( MOTORA_Select );
 8001508:	2381      	movs	r3, #129	@ 0x81
 800150a:	025b      	lsls	r3, r3, #9
 800150c:	0018      	movs	r0, r3
 800150e:	f001 f997 	bl	8002840 <GPIO_Reset>
	SPI_Write( SPI_1, tx, TX_BUFF_SIZE );
 8001512:	4b24      	ldr	r3, [pc, #144]	@ (80015a4 <MOTOR_Init+0x2ac>)
 8001514:	681b      	ldr	r3, [r3, #0]
 8001516:	1d39      	adds	r1, r7, #4
 8001518:	2202      	movs	r2, #2
 800151a:	0018      	movs	r0, r3
 800151c:	f001 fb64 	bl	8002be8 <SPI_Write>
	GPIO_Set( MOTORA_Select );
 8001520:	2381      	movs	r3, #129	@ 0x81
 8001522:	025b      	lsls	r3, r3, #9
 8001524:	0018      	movs	r0, r3
 8001526:	f001 f97a 	bl	800281e <GPIO_Set>
	GPIO_Reset( MOTORB_Select );
 800152a:	2380      	movs	r3, #128	@ 0x80
 800152c:	021b      	lsls	r3, r3, #8
 800152e:	0018      	movs	r0, r3
 8001530:	f001 f986 	bl	8002840 <GPIO_Reset>
	SPI_Write( SPI_1, tx, TX_BUFF_SIZE );
 8001534:	4b1b      	ldr	r3, [pc, #108]	@ (80015a4 <MOTOR_Init+0x2ac>)
 8001536:	681b      	ldr	r3, [r3, #0]
 8001538:	1d39      	adds	r1, r7, #4
 800153a:	2202      	movs	r2, #2
 800153c:	0018      	movs	r0, r3
 800153e:	f001 fb53 	bl	8002be8 <SPI_Write>
	GPIO_Set( MOTORB_Select );
 8001542:	2380      	movs	r3, #128	@ 0x80
 8001544:	021b      	lsls	r3, r3, #8
 8001546:	0018      	movs	r0, r3
 8001548:	f001 f969 	bl	800281e <GPIO_Set>

	// WRITE TO SPI_IN REGISTRER
	// 	- SPEED TO 0
	tx[0] = 0x09;							// address = 0x09
 800154c:	1d3b      	adds	r3, r7, #4
 800154e:	2209      	movs	r2, #9
 8001550:	701a      	strb	r2, [r3, #0]
	tx[1] = 0x00;							// default = 0x00
 8001552:	1d3b      	adds	r3, r7, #4
 8001554:	2200      	movs	r2, #0
 8001556:	705a      	strb	r2, [r3, #1]
	GPIO_Reset( MOTORA_Select );
 8001558:	2381      	movs	r3, #129	@ 0x81
 800155a:	025b      	lsls	r3, r3, #9
 800155c:	0018      	movs	r0, r3
 800155e:	f001 f96f 	bl	8002840 <GPIO_Reset>
	SPI_Write( SPI_1, tx, TX_BUFF_SIZE );
 8001562:	4b10      	ldr	r3, [pc, #64]	@ (80015a4 <MOTOR_Init+0x2ac>)
 8001564:	681b      	ldr	r3, [r3, #0]
 8001566:	1d39      	adds	r1, r7, #4
 8001568:	2202      	movs	r2, #2
 800156a:	0018      	movs	r0, r3
 800156c:	f001 fb3c 	bl	8002be8 <SPI_Write>
	GPIO_Set( MOTORA_Select );
 8001570:	2381      	movs	r3, #129	@ 0x81
 8001572:	025b      	lsls	r3, r3, #9
 8001574:	0018      	movs	r0, r3
 8001576:	f001 f952 	bl	800281e <GPIO_Set>
	GPIO_Reset( MOTORB_Select );
 800157a:	2380      	movs	r3, #128	@ 0x80
 800157c:	021b      	lsls	r3, r3, #8
 800157e:	0018      	movs	r0, r3
 8001580:	f001 f95e 	bl	8002840 <GPIO_Reset>
	SPI_Write( SPI_1, tx, TX_BUFF_SIZE );
 8001584:	4b07      	ldr	r3, [pc, #28]	@ (80015a4 <MOTOR_Init+0x2ac>)
 8001586:	681b      	ldr	r3, [r3, #0]
 8001588:	1d39      	adds	r1, r7, #4
 800158a:	2202      	movs	r2, #2
 800158c:	0018      	movs	r0, r3
 800158e:	f001 fb2b 	bl	8002be8 <SPI_Write>
	GPIO_Set( MOTORB_Select );
 8001592:	2380      	movs	r3, #128	@ 0x80
 8001594:	021b      	lsls	r3, r3, #8
 8001596:	0018      	movs	r0, r3
 8001598:	f001 f941 	bl	800281e <GPIO_Set>
//	TIM_Init( 		TIM_MOTORB, TIM_MOTORB_FREQ, TIM_MOTORB_RELOAD );
//	TIM_OnReload( 	TIM_MOTORB, MOTOR_ReloadM2_ISR );
//	TIM_OnPulse( 	TIM_MOTORB, TIM_MOTORB_CH, MOTOR_PulseM2_ISR );
//	TIM_SetPulse(	TIM_MOTORB, TIM_MOTORB_CH, M2.speed );
//	TIM_Start(		TIM_MOTORB );
}
 800159c:	46c0      	nop			@ (mov r8, r8)
 800159e:	46bd      	mov	sp, r7
 80015a0:	b002      	add	sp, #8
 80015a2:	bd80      	pop	{r7, pc}
 80015a4:	20000010 	.word	0x20000010
 80015a8:	007a1200 	.word	0x007a1200
 80015ac:	00010080 	.word	0x00010080
 80015b0:	00010040 	.word	0x00010040
 80015b4:	200000bc 	.word	0x200000bc
 80015b8:	200000d8 	.word	0x200000d8

080015bc <CORE_GetTick>:
/*
 * INLINE FUNCTION DEFINITIONS
 */

static inline uint32_t CORE_GetTick(void)
{
 80015bc:	b580      	push	{r7, lr}
 80015be:	af00      	add	r7, sp, #0
	return gTicks;
 80015c0:	4b02      	ldr	r3, [pc, #8]	@ (80015cc <CORE_GetTick+0x10>)
 80015c2:	681b      	ldr	r3, [r3, #0]
}
 80015c4:	0018      	movs	r0, r3
 80015c6:	46bd      	mov	sp, r7
 80015c8:	bd80      	pop	{r7, pc}
 80015ca:	46c0      	nop			@ (mov r8, r8)
 80015cc:	20000188 	.word	0x20000188

080015d0 <GPIO_EnableInput>:
{
 80015d0:	b580      	push	{r7, lr}
 80015d2:	b082      	sub	sp, #8
 80015d4:	af00      	add	r7, sp, #0
 80015d6:	6078      	str	r0, [r7, #4]
 80015d8:	000a      	movs	r2, r1
 80015da:	1cfb      	adds	r3, r7, #3
 80015dc:	701a      	strb	r2, [r3, #0]
	GPIO_Init(pins, GPIO_Mode_Input | pull);
 80015de:	1cfb      	adds	r3, r7, #3
 80015e0:	781b      	ldrb	r3, [r3, #0]
 80015e2:	b29a      	uxth	r2, r3
 80015e4:	687b      	ldr	r3, [r7, #4]
 80015e6:	0011      	movs	r1, r2
 80015e8:	0018      	movs	r0, r3
 80015ea:	f001 f89f 	bl	800272c <GPIO_Init>
}
 80015ee:	46c0      	nop			@ (mov r8, r8)
 80015f0:	46bd      	mov	sp, r7
 80015f2:	b002      	add	sp, #8
 80015f4:	bd80      	pop	{r7, pc}

080015f6 <TIM_Read>:
/*
 * INLINE FUNCTION DEFINITIONS
 */

static inline uint32_t TIM_Read(TIM_t * tim)
{
 80015f6:	b580      	push	{r7, lr}
 80015f8:	b082      	sub	sp, #8
 80015fa:	af00      	add	r7, sp, #0
 80015fc:	6078      	str	r0, [r7, #4]
	return tim->Instance->CNT;
 80015fe:	687b      	ldr	r3, [r7, #4]
 8001600:	681b      	ldr	r3, [r3, #0]
 8001602:	6a5b      	ldr	r3, [r3, #36]	@ 0x24
}
 8001604:	0018      	movs	r0, r3
 8001606:	46bd      	mov	sp, r7
 8001608:	b002      	add	sp, #8
 800160a:	bd80      	pop	{r7, pc}

0800160c <RADIO_Init>:


/*
 * Handles initialization of radio module, including data structures, timers, and calibration
 */
void RADIO_Init(void) {
 800160c:	b580      	push	{r7, lr}
 800160e:	b082      	sub	sp, #8
 8001610:	af00      	add	r7, sp, #0
	// RESET RADIO DATA ARRAYS
	for (uint8_t ch = 0; ch < RADIO_NUM_CHANNELS; ch++) {
 8001612:	1dfb      	adds	r3, r7, #7
 8001614:	2200      	movs	r2, #0
 8001616:	701a      	strb	r2, [r3, #0]
 8001618:	e01d      	b.n	8001656 <RADIO_Init+0x4a>
		rx[ch] = 0;
 800161a:	1dfb      	adds	r3, r7, #7
 800161c:	781a      	ldrb	r2, [r3, #0]
 800161e:	4b33      	ldr	r3, [pc, #204]	@ (80016ec <RADIO_Init+0xe0>)
 8001620:	0092      	lsls	r2, r2, #2
 8001622:	2100      	movs	r1, #0
 8001624:	50d1      	str	r1, [r2, r3]
		data.ch[ch] = 0;
 8001626:	1dfb      	adds	r3, r7, #7
 8001628:	781b      	ldrb	r3, [r3, #0]
 800162a:	4a31      	ldr	r2, [pc, #196]	@ (80016f0 <RADIO_Init+0xe4>)
 800162c:	009b      	lsls	r3, r3, #2
 800162e:	18d3      	adds	r3, r2, r3
 8001630:	3304      	adds	r3, #4
 8001632:	2200      	movs	r2, #0
 8001634:	601a      	str	r2, [r3, #0]
		data.chActive[ch] = chActive_False;
 8001636:	1dfb      	adds	r3, r7, #7
 8001638:	781b      	ldrb	r3, [r3, #0]
 800163a:	4a2d      	ldr	r2, [pc, #180]	@ (80016f0 <RADIO_Init+0xe4>)
 800163c:	18d3      	adds	r3, r2, r3
 800163e:	2200      	movs	r2, #0
 8001640:	751a      	strb	r2, [r3, #20]
		data.inputLostCh[ch] = true;
 8001642:	1dfb      	adds	r3, r7, #7
 8001644:	781b      	ldrb	r3, [r3, #0]
 8001646:	4a2a      	ldr	r2, [pc, #168]	@ (80016f0 <RADIO_Init+0xe4>)
 8001648:	2101      	movs	r1, #1
 800164a:	54d1      	strb	r1, [r2, r3]
	for (uint8_t ch = 0; ch < RADIO_NUM_CHANNELS; ch++) {
 800164c:	1dfb      	adds	r3, r7, #7
 800164e:	781a      	ldrb	r2, [r3, #0]
 8001650:	1dfb      	adds	r3, r7, #7
 8001652:	3201      	adds	r2, #1
 8001654:	701a      	strb	r2, [r3, #0]
 8001656:	1dfb      	adds	r3, r7, #7
 8001658:	781b      	ldrb	r3, [r3, #0]
 800165a:	2b03      	cmp	r3, #3
 800165c:	d9dd      	bls.n	800161a <RADIO_Init+0xe>
	}

	// START TIMERS TO MEASURE PULSE WIDTHS
	TIM_Init(TIM_RADIO, TIM_RADIO_FREQ, TIM_RADIO_RELOAD);
 800165e:	4b25      	ldr	r3, [pc, #148]	@ (80016f4 <RADIO_Init+0xe8>)
 8001660:	681b      	ldr	r3, [r3, #0]
 8001662:	4a25      	ldr	r2, [pc, #148]	@ (80016f8 <RADIO_Init+0xec>)
 8001664:	4925      	ldr	r1, [pc, #148]	@ (80016fc <RADIO_Init+0xf0>)
 8001666:	0018      	movs	r0, r3
 8001668:	f001 fb48 	bl	8002cfc <TIM_Init>
	TIM_Start(TIM_RADIO);
 800166c:	4b21      	ldr	r3, [pc, #132]	@ (80016f4 <RADIO_Init+0xe8>)
 800166e:	681b      	ldr	r3, [r3, #0]
 8001670:	0018      	movs	r0, r3
 8001672:	f001 fb93 	bl	8002d9c <TIM_Start>

	// SETUP GPIO AS INPUTS
	GPIO_EnableInput(RADIO_PWM1_Pin, GPIO_Pull_Down);
 8001676:	2380      	movs	r3, #128	@ 0x80
 8001678:	005b      	lsls	r3, r3, #1
 800167a:	2120      	movs	r1, #32
 800167c:	0018      	movs	r0, r3
 800167e:	f7ff ffa7 	bl	80015d0 <GPIO_EnableInput>
	GPIO_OnChange(RADIO_PWM1_Pin, GPIO_IT_Both, RADIO_CH1_IRQ);
 8001682:	4a1f      	ldr	r2, [pc, #124]	@ (8001700 <RADIO_Init+0xf4>)
 8001684:	2380      	movs	r3, #128	@ 0x80
 8001686:	005b      	lsls	r3, r3, #1
 8001688:	2103      	movs	r1, #3
 800168a:	0018      	movs	r0, r3
 800168c:	f001 f826 	bl	80026dc <GPIO_OnChange>
	GPIO_EnableInput(RADIO_PWM2_Pin, GPIO_Pull_Down);
 8001690:	2380      	movs	r3, #128	@ 0x80
 8001692:	009b      	lsls	r3, r3, #2
 8001694:	2120      	movs	r1, #32
 8001696:	0018      	movs	r0, r3
 8001698:	f7ff ff9a 	bl	80015d0 <GPIO_EnableInput>
	GPIO_OnChange(RADIO_PWM2_Pin, GPIO_IT_Both, RADIO_CH2_IRQ);
 800169c:	4a19      	ldr	r2, [pc, #100]	@ (8001704 <RADIO_Init+0xf8>)
 800169e:	2380      	movs	r3, #128	@ 0x80
 80016a0:	009b      	lsls	r3, r3, #2
 80016a2:	2103      	movs	r1, #3
 80016a4:	0018      	movs	r0, r3
 80016a6:	f001 f819 	bl	80026dc <GPIO_OnChange>
	#if RADIO_NUM_CHANNELS >= 3
	GPIO_EnableInput(RADIO_PWM3_Pin, GPIO_Pull_Down);
 80016aa:	4b17      	ldr	r3, [pc, #92]	@ (8001708 <RADIO_Init+0xfc>)
 80016ac:	2120      	movs	r1, #32
 80016ae:	0018      	movs	r0, r3
 80016b0:	f7ff ff8e 	bl	80015d0 <GPIO_EnableInput>
	GPIO_OnChange(RADIO_PWM3_Pin, GPIO_IT_Both, RADIO_CH3_IRQ);
 80016b4:	4b15      	ldr	r3, [pc, #84]	@ (800170c <RADIO_Init+0x100>)
 80016b6:	4814      	ldr	r0, [pc, #80]	@ (8001708 <RADIO_Init+0xfc>)
 80016b8:	001a      	movs	r2, r3
 80016ba:	2103      	movs	r1, #3
 80016bc:	f001 f80e 	bl	80026dc <GPIO_OnChange>
	#if RADIO_NUM_CHANNELS >= 4
	GPIO_EnableInput(RADIO_PWM4_Pin, GPIO_Pull_Down);
 80016c0:	2380      	movs	r3, #128	@ 0x80
 80016c2:	00db      	lsls	r3, r3, #3
 80016c4:	2120      	movs	r1, #32
 80016c6:	0018      	movs	r0, r3
 80016c8:	f7ff ff82 	bl	80015d0 <GPIO_EnableInput>
	GPIO_OnChange(RADIO_PWM4_Pin, GPIO_IT_Both, RADIO_CH4_IRQ);
 80016cc:	4a10      	ldr	r2, [pc, #64]	@ (8001710 <RADIO_Init+0x104>)
 80016ce:	2380      	movs	r3, #128	@ 0x80
 80016d0:	00db      	lsls	r3, r3, #3
 80016d2:	2103      	movs	r1, #3
 80016d4:	0018      	movs	r0, r3
 80016d6:	f001 f801 	bl	80026dc <GPIO_OnChange>
	#endif
	#endif

	// SET RELEVANT FLAGS
	initialised = true;
 80016da:	4b0e      	ldr	r3, [pc, #56]	@ (8001714 <RADIO_Init+0x108>)
 80016dc:	2201      	movs	r2, #1
 80016de:	701a      	strb	r2, [r3, #0]

	// RUN A RADIO DATA UPDATE BEFORE PROGRESSING
	RADIO_Update();
 80016e0:	f000 f81a 	bl	8001718 <RADIO_Update>
}
 80016e4:	46c0      	nop			@ (mov r8, r8)
 80016e6:	46bd      	mov	sp, r7
 80016e8:	b002      	add	sp, #8
 80016ea:	bd80      	pop	{r7, pc}
 80016ec:	200000e0 	.word	0x200000e0
 80016f0:	200000f0 	.word	0x200000f0
 80016f4:	20000064 	.word	0x20000064
 80016f8:	0000ffff 	.word	0x0000ffff
 80016fc:	000f4240 	.word	0x000f4240
 8001700:	0800199d 	.word	0x0800199d
 8001704:	08001a55 	.word	0x08001a55
 8001708:	00020040 	.word	0x00020040
 800170c:	08001b15 	.word	0x08001b15
 8001710:	08001bd5 	.word	0x08001bd5
 8001714:	200000dc 	.word	0x200000dc

08001718 <RADIO_Update>:

/*
 * UPDATES RELEVANT RADIO DATA
 * SHOULD BE POLLED REGULARLY, RECOMMENDED PERIOD = ~1MS
 */
void RADIO_Update(void) {
 8001718:	b580      	push	{r7, lr}
 800171a:	b082      	sub	sp, #8
 800171c:	af00      	add	r7, sp, #0
	// INIT LOOP VARIABLES
	uint32_t now = CORE_GetTick();
 800171e:	f7ff ff4d 	bl	80015bc <CORE_GetTick>
 8001722:	0003      	movs	r3, r0
 8001724:	603b      	str	r3, [r7, #0]
	static uint32_t tick[RADIO_NUM_CHANNELS] = { 0 };
	static uint8_t count = 0;
	static uint8_t timeinCount = 2;

	// ITTERATE THROUGH EACH CHANNEL
	for (uint8_t ch = radioCH1; ch < RADIO_NUM_CHANNELS; ch++) {
 8001726:	1dfb      	adds	r3, r7, #7
 8001728:	2200      	movs	r2, #0
 800172a:	701a      	strb	r2, [r3, #0]
 800172c:	e090      	b.n	8001850 <RADIO_Update+0x138>
		// STATE - TIMEDOUT (OR STARTUP)
		if (data.inputLostCh[ch]) {
 800172e:	1dfb      	adds	r3, r7, #7
 8001730:	781b      	ldrb	r3, [r3, #0]
 8001732:	4a4c      	ldr	r2, [pc, #304]	@ (8001864 <RADIO_Update+0x14c>)
 8001734:	5cd3      	ldrb	r3, [r2, r3]
 8001736:	2b00      	cmp	r3, #0
 8001738:	d03e      	beq.n	80017b8 <RADIO_Update+0xa0>
			// VALID DATA SITTING IN BUFFER
			if (rx[ch]) {
 800173a:	1dfb      	adds	r3, r7, #7
 800173c:	781a      	ldrb	r2, [r3, #0]
 800173e:	4b4a      	ldr	r3, [pc, #296]	@ (8001868 <RADIO_Update+0x150>)
 8001740:	0092      	lsls	r2, r2, #2
 8001742:	58d3      	ldr	r3, [r2, r3]
 8001744:	2b00      	cmp	r3, #0
 8001746:	d021      	beq.n	800178c <RADIO_Update+0x74>
				// INCREMENT VALID DATA COUNTER
				count += 1;
 8001748:	4b48      	ldr	r3, [pc, #288]	@ (800186c <RADIO_Update+0x154>)
 800174a:	781b      	ldrb	r3, [r3, #0]
 800174c:	3301      	adds	r3, #1
 800174e:	b2da      	uxtb	r2, r3
 8001750:	4b46      	ldr	r3, [pc, #280]	@ (800186c <RADIO_Update+0x154>)
 8001752:	701a      	strb	r2, [r3, #0]
				// IS TIMEIN CONDITION REACHED
				if (count >= timeinCount) {
 8001754:	4b45      	ldr	r3, [pc, #276]	@ (800186c <RADIO_Update+0x154>)
 8001756:	781a      	ldrb	r2, [r3, #0]
 8001758:	4b45      	ldr	r3, [pc, #276]	@ (8001870 <RADIO_Update+0x158>)
 800175a:	781b      	ldrb	r3, [r3, #0]
 800175c:	429a      	cmp	r2, r3
 800175e:	d308      	bcc.n	8001772 <RADIO_Update+0x5a>
					data.inputLostCh[ch] = false; // dont do anything to cascade to normal operation
 8001760:	1dfb      	adds	r3, r7, #7
 8001762:	781b      	ldrb	r3, [r3, #0]
 8001764:	4a3f      	ldr	r2, [pc, #252]	@ (8001864 <RADIO_Update+0x14c>)
 8001766:	2100      	movs	r1, #0
 8001768:	54d1      	strb	r1, [r2, r3]
					timeinCount = PWM_TIMEIN_COUNT;
 800176a:	4b41      	ldr	r3, [pc, #260]	@ (8001870 <RADIO_Update+0x158>)
 800176c:	2203      	movs	r2, #3
 800176e:	701a      	strb	r2, [r3, #0]
 8001770:	e022      	b.n	80017b8 <RADIO_Update+0xa0>
				}
				// RESET AND WAIT FOR MORE DATA
				else {
					rx[ch] = 0;
 8001772:	1dfb      	adds	r3, r7, #7
 8001774:	781a      	ldrb	r2, [r3, #0]
 8001776:	4b3c      	ldr	r3, [pc, #240]	@ (8001868 <RADIO_Update+0x150>)
 8001778:	0092      	lsls	r2, r2, #2
 800177a:	2100      	movs	r1, #0
 800177c:	50d1      	str	r1, [r2, r3]
					tick[ch] = now;
 800177e:	1dfb      	adds	r3, r7, #7
 8001780:	781a      	ldrb	r2, [r3, #0]
 8001782:	4b3c      	ldr	r3, [pc, #240]	@ (8001874 <RADIO_Update+0x15c>)
 8001784:	0092      	lsls	r2, r2, #2
 8001786:	6839      	ldr	r1, [r7, #0]
 8001788:	50d1      	str	r1, [r2, r3]
 800178a:	e015      	b.n	80017b8 <RADIO_Update+0xa0>
				}
			}
			// CHECK FOR TIMEIN COUNT RESET
			else if (count && (now - tick[ch]) >= PWM_PERIOD_MAX_MS) {
 800178c:	4b37      	ldr	r3, [pc, #220]	@ (800186c <RADIO_Update+0x154>)
 800178e:	781b      	ldrb	r3, [r3, #0]
 8001790:	2b00      	cmp	r3, #0
 8001792:	d011      	beq.n	80017b8 <RADIO_Update+0xa0>
 8001794:	1dfb      	adds	r3, r7, #7
 8001796:	781a      	ldrb	r2, [r3, #0]
 8001798:	4b36      	ldr	r3, [pc, #216]	@ (8001874 <RADIO_Update+0x15c>)
 800179a:	0092      	lsls	r2, r2, #2
 800179c:	58d3      	ldr	r3, [r2, r3]
 800179e:	683a      	ldr	r2, [r7, #0]
 80017a0:	1ad3      	subs	r3, r2, r3
 80017a2:	2b18      	cmp	r3, #24
 80017a4:	d908      	bls.n	80017b8 <RADIO_Update+0xa0>
				count = 0;
 80017a6:	4b31      	ldr	r3, [pc, #196]	@ (800186c <RADIO_Update+0x154>)
 80017a8:	2200      	movs	r2, #0
 80017aa:	701a      	strb	r2, [r3, #0]
				tick[ch] = now;
 80017ac:	1dfb      	adds	r3, r7, #7
 80017ae:	781a      	ldrb	r2, [r3, #0]
 80017b0:	4b30      	ldr	r3, [pc, #192]	@ (8001874 <RADIO_Update+0x15c>)
 80017b2:	0092      	lsls	r2, r2, #2
 80017b4:	6839      	ldr	r1, [r7, #0]
 80017b6:	50d1      	str	r1, [r2, r3]
			}
		}

		// STATE - NORMAL OPERATION
		if (!data.inputLostCh[ch]) {
 80017b8:	1dfb      	adds	r3, r7, #7
 80017ba:	781b      	ldrb	r3, [r3, #0]
 80017bc:	4a29      	ldr	r2, [pc, #164]	@ (8001864 <RADIO_Update+0x14c>)
 80017be:	5cd3      	ldrb	r3, [r2, r3]
 80017c0:	2201      	movs	r2, #1
 80017c2:	4053      	eors	r3, r2
 80017c4:	b2db      	uxtb	r3, r3
 80017c6:	2b00      	cmp	r3, #0
 80017c8:	d03d      	beq.n	8001846 <RADIO_Update+0x12e>
			// CHECK FOR NEW DATA
			if (rx[ch]) {
 80017ca:	1dfb      	adds	r3, r7, #7
 80017cc:	781a      	ldrb	r2, [r3, #0]
 80017ce:	4b26      	ldr	r3, [pc, #152]	@ (8001868 <RADIO_Update+0x150>)
 80017d0:	0092      	lsls	r2, r2, #2
 80017d2:	58d3      	ldr	r3, [r2, r3]
 80017d4:	2b00      	cmp	r3, #0
 80017d6:	d011      	beq.n	80017fc <RADIO_Update+0xe4>
				// PROCESS DATA
				RADIO_processChannel(ch);
 80017d8:	1dfb      	adds	r3, r7, #7
 80017da:	781b      	ldrb	r3, [r3, #0]
 80017dc:	0018      	movs	r0, r3
 80017de:	f000 f893 	bl	8001908 <RADIO_processChannel>
				// RESET RELEVANT FLAGS
				rx[ch] = 0;
 80017e2:	1dfb      	adds	r3, r7, #7
 80017e4:	781a      	ldrb	r2, [r3, #0]
 80017e6:	4b20      	ldr	r3, [pc, #128]	@ (8001868 <RADIO_Update+0x150>)
 80017e8:	0092      	lsls	r2, r2, #2
 80017ea:	2100      	movs	r1, #0
 80017ec:	50d1      	str	r1, [r2, r3]
				tick[ch] = now;
 80017ee:	1dfb      	adds	r3, r7, #7
 80017f0:	781a      	ldrb	r2, [r3, #0]
 80017f2:	4b20      	ldr	r3, [pc, #128]	@ (8001874 <RADIO_Update+0x15c>)
 80017f4:	0092      	lsls	r2, r2, #2
 80017f6:	6839      	ldr	r1, [r7, #0]
 80017f8:	50d1      	str	r1, [r2, r3]
 80017fa:	e024      	b.n	8001846 <RADIO_Update+0x12e>
			}

			// CHECK FOR TIMEOUT CONDITION
			else if ((now - tick[ch]) >= PWM_TIMEOUT_MS) {
 80017fc:	1dfb      	adds	r3, r7, #7
 80017fe:	781a      	ldrb	r2, [r3, #0]
 8001800:	4b1c      	ldr	r3, [pc, #112]	@ (8001874 <RADIO_Update+0x15c>)
 8001802:	0092      	lsls	r2, r2, #2
 8001804:	58d3      	ldr	r3, [r2, r3]
 8001806:	683a      	ldr	r2, [r7, #0]
 8001808:	1ad3      	subs	r3, r2, r3
 800180a:	2b63      	cmp	r3, #99	@ 0x63
 800180c:	d91b      	bls.n	8001846 <RADIO_Update+0x12e>
				// SET RELEVANT FLAGS
				data.inputLostCh[ch] = true;
 800180e:	1dfb      	adds	r3, r7, #7
 8001810:	781b      	ldrb	r3, [r3, #0]
 8001812:	4a14      	ldr	r2, [pc, #80]	@ (8001864 <RADIO_Update+0x14c>)
 8001814:	2101      	movs	r1, #1
 8001816:	54d1      	strb	r1, [r2, r3]
				data.ch[ch] = 0;
 8001818:	1dfb      	adds	r3, r7, #7
 800181a:	781b      	ldrb	r3, [r3, #0]
 800181c:	4a11      	ldr	r2, [pc, #68]	@ (8001864 <RADIO_Update+0x14c>)
 800181e:	009b      	lsls	r3, r3, #2
 8001820:	18d3      	adds	r3, r2, r3
 8001822:	3304      	adds	r3, #4
 8001824:	2200      	movs	r2, #0
 8001826:	601a      	str	r2, [r3, #0]
				data.chActive[ch] = chActive_False;
 8001828:	1dfb      	adds	r3, r7, #7
 800182a:	781b      	ldrb	r3, [r3, #0]
 800182c:	4a0d      	ldr	r2, [pc, #52]	@ (8001864 <RADIO_Update+0x14c>)
 800182e:	18d3      	adds	r3, r2, r3
 8001830:	2200      	movs	r2, #0
 8001832:	751a      	strb	r2, [r3, #20]
				tick[ch] = now;
 8001834:	1dfb      	adds	r3, r7, #7
 8001836:	781a      	ldrb	r2, [r3, #0]
 8001838:	4b0e      	ldr	r3, [pc, #56]	@ (8001874 <RADIO_Update+0x15c>)
 800183a:	0092      	lsls	r2, r2, #2
 800183c:	6839      	ldr	r1, [r7, #0]
 800183e:	50d1      	str	r1, [r2, r3]
				count = 0;
 8001840:	4b0a      	ldr	r3, [pc, #40]	@ (800186c <RADIO_Update+0x154>)
 8001842:	2200      	movs	r2, #0
 8001844:	701a      	strb	r2, [r3, #0]
	for (uint8_t ch = radioCH1; ch < RADIO_NUM_CHANNELS; ch++) {
 8001846:	1dfb      	adds	r3, r7, #7
 8001848:	781a      	ldrb	r2, [r3, #0]
 800184a:	1dfb      	adds	r3, r7, #7
 800184c:	3201      	adds	r2, #1
 800184e:	701a      	strb	r2, [r3, #0]
 8001850:	1dfb      	adds	r3, r7, #7
 8001852:	781b      	ldrb	r3, [r3, #0]
 8001854:	2b03      	cmp	r3, #3
 8001856:	d800      	bhi.n	800185a <RADIO_Update+0x142>
 8001858:	e769      	b.n	800172e <RADIO_Update+0x16>
			}
		}
	}

}
 800185a:	46c0      	nop			@ (mov r8, r8)
 800185c:	46c0      	nop			@ (mov r8, r8)
 800185e:	46bd      	mov	sp, r7
 8001860:	b002      	add	sp, #8
 8001862:	bd80      	pop	{r7, pc}
 8001864:	200000f0 	.word	0x200000f0
 8001868:	200000e0 	.word	0x200000e0
 800186c:	20000108 	.word	0x20000108
 8001870:	20000000 	.word	0x20000000
 8001874:	2000010c 	.word	0x2000010c

08001878 <RADIO_getDataPtr>:

/*
 *
 */
RADIO_Data* RADIO_getDataPtr ( void )
{
 8001878:	b580      	push	{r7, lr}
 800187a:	af00      	add	r7, sp, #0
	return &data;
 800187c:	4b01      	ldr	r3, [pc, #4]	@ (8001884 <RADIO_getDataPtr+0xc>)
}
 800187e:	0018      	movs	r0, r3
 8001880:	46bd      	mov	sp, r7
 8001882:	bd80      	pop	{r7, pc}
 8001884:	200000f0 	.word	0x200000f0

08001888 <RADIO_truncate>:


/*
 *
 */
uint32_t RADIO_truncate(uint32_t r) {
 8001888:	b580      	push	{r7, lr}
 800188a:	b082      	sub	sp, #8
 800188c:	af00      	add	r7, sp, #0
 800188e:	6078      	str	r0, [r7, #4]
	if (r == 0) {
 8001890:	687b      	ldr	r3, [r7, #4]
 8001892:	2b00      	cmp	r3, #0
 8001894:	d101      	bne.n	800189a <RADIO_truncate+0x12>
		return 0;
 8001896:	2300      	movs	r3, #0
 8001898:	e029      	b.n	80018ee <RADIO_truncate+0x66>
	} else if (r < PWM_WIDTH_ABSMIN_US) {
 800189a:	687a      	ldr	r2, [r7, #4]
 800189c:	23c8      	movs	r3, #200	@ 0xc8
 800189e:	009b      	lsls	r3, r3, #2
 80018a0:	429a      	cmp	r2, r3
 80018a2:	d201      	bcs.n	80018a8 <RADIO_truncate+0x20>
		return 0;
 80018a4:	2300      	movs	r3, #0
 80018a6:	e022      	b.n	80018ee <RADIO_truncate+0x66>
	} else if (r < PWM_WIDTH_MIN_US) {
 80018a8:	687a      	ldr	r2, [r7, #4]
 80018aa:	23fa      	movs	r3, #250	@ 0xfa
 80018ac:	009b      	lsls	r3, r3, #2
 80018ae:	429a      	cmp	r2, r3
 80018b0:	d202      	bcs.n	80018b8 <RADIO_truncate+0x30>
		return PWM_WIDTH_MIN_US;
 80018b2:	23fa      	movs	r3, #250	@ 0xfa
 80018b4:	009b      	lsls	r3, r3, #2
 80018b6:	e01a      	b.n	80018ee <RADIO_truncate+0x66>
	} else if (r < PWM_WIDTH_CENTERMIN_US) {
 80018b8:	687b      	ldr	r3, [r7, #4]
 80018ba:	4a0f      	ldr	r2, [pc, #60]	@ (80018f8 <RADIO_truncate+0x70>)
 80018bc:	4293      	cmp	r3, r2
 80018be:	d801      	bhi.n	80018c4 <RADIO_truncate+0x3c>
		return r;
 80018c0:	687b      	ldr	r3, [r7, #4]
 80018c2:	e014      	b.n	80018ee <RADIO_truncate+0x66>
	} else if (r <= PWM_WIDTH_CENTERMAX_US) {
 80018c4:	687b      	ldr	r3, [r7, #4]
 80018c6:	4a0d      	ldr	r2, [pc, #52]	@ (80018fc <RADIO_truncate+0x74>)
 80018c8:	4293      	cmp	r3, r2
 80018ca:	d801      	bhi.n	80018d0 <RADIO_truncate+0x48>
		return PWM_WIDTH_CENTER_US;
 80018cc:	4b0c      	ldr	r3, [pc, #48]	@ (8001900 <RADIO_truncate+0x78>)
 80018ce:	e00e      	b.n	80018ee <RADIO_truncate+0x66>
	} else if (r <= PWM_WIDTH_MAX_US) {
 80018d0:	687a      	ldr	r2, [r7, #4]
 80018d2:	23fa      	movs	r3, #250	@ 0xfa
 80018d4:	00db      	lsls	r3, r3, #3
 80018d6:	429a      	cmp	r2, r3
 80018d8:	d801      	bhi.n	80018de <RADIO_truncate+0x56>
		return r;
 80018da:	687b      	ldr	r3, [r7, #4]
 80018dc:	e007      	b.n	80018ee <RADIO_truncate+0x66>
	} else if (r <= PWM_WIDTH_ABSMAX_US) {
 80018de:	687b      	ldr	r3, [r7, #4]
 80018e0:	4a08      	ldr	r2, [pc, #32]	@ (8001904 <RADIO_truncate+0x7c>)
 80018e2:	4293      	cmp	r3, r2
 80018e4:	d802      	bhi.n	80018ec <RADIO_truncate+0x64>
		return PWM_WIDTH_MAX_US;
 80018e6:	23fa      	movs	r3, #250	@ 0xfa
 80018e8:	00db      	lsls	r3, r3, #3
 80018ea:	e000      	b.n	80018ee <RADIO_truncate+0x66>
	} else {
		return 0;
 80018ec:	2300      	movs	r3, #0
	}
}
 80018ee:	0018      	movs	r0, r3
 80018f0:	46bd      	mov	sp, r7
 80018f2:	b002      	add	sp, #8
 80018f4:	bd80      	pop	{r7, pc}
 80018f6:	46c0      	nop			@ (mov r8, r8)
 80018f8:	000005a9 	.word	0x000005a9
 80018fc:	0000060e 	.word	0x0000060e
 8001900:	000005dc 	.word	0x000005dc
 8001904:	00000898 	.word	0x00000898

08001908 <RADIO_processChannel>:


/*
 *
 */
void RADIO_processChannel(uint8_t ch) {
 8001908:	b590      	push	{r4, r7, lr}
 800190a:	b083      	sub	sp, #12
 800190c:	af00      	add	r7, sp, #0
 800190e:	0002      	movs	r2, r0
 8001910:	1dfb      	adds	r3, r7, #7
 8001912:	701a      	strb	r2, [r3, #0]
	// MOVE DATA FROM TEMP TO DATA ARRAY
	data.ch[ch] = RADIO_truncate(rx[ch]);
 8001914:	1dfb      	adds	r3, r7, #7
 8001916:	781a      	ldrb	r2, [r3, #0]
 8001918:	4b1c      	ldr	r3, [pc, #112]	@ (800198c <RADIO_processChannel+0x84>)
 800191a:	0092      	lsls	r2, r2, #2
 800191c:	58d2      	ldr	r2, [r2, r3]
 800191e:	1dfb      	adds	r3, r7, #7
 8001920:	781c      	ldrb	r4, [r3, #0]
 8001922:	0010      	movs	r0, r2
 8001924:	f7ff ffb0 	bl	8001888 <RADIO_truncate>
 8001928:	0001      	movs	r1, r0
 800192a:	4a19      	ldr	r2, [pc, #100]	@ (8001990 <RADIO_processChannel+0x88>)
 800192c:	00a3      	lsls	r3, r4, #2
 800192e:	18d3      	adds	r3, r2, r3
 8001930:	3304      	adds	r3, #4
 8001932:	6019      	str	r1, [r3, #0]
	// CHECK FOR ACTIVE FLAG
	if (data.ch[ch] > PWM_WIDTH_CENTER_US) {
 8001934:	1dfb      	adds	r3, r7, #7
 8001936:	781b      	ldrb	r3, [r3, #0]
 8001938:	4a15      	ldr	r2, [pc, #84]	@ (8001990 <RADIO_processChannel+0x88>)
 800193a:	009b      	lsls	r3, r3, #2
 800193c:	18d3      	adds	r3, r2, r3
 800193e:	3304      	adds	r3, #4
 8001940:	681b      	ldr	r3, [r3, #0]
 8001942:	4a14      	ldr	r2, [pc, #80]	@ (8001994 <RADIO_processChannel+0x8c>)
 8001944:	4293      	cmp	r3, r2
 8001946:	d906      	bls.n	8001956 <RADIO_processChannel+0x4e>
		data.chActive[ch] = chActive_True;
 8001948:	1dfb      	adds	r3, r7, #7
 800194a:	781b      	ldrb	r3, [r3, #0]
 800194c:	4a10      	ldr	r2, [pc, #64]	@ (8001990 <RADIO_processChannel+0x88>)
 800194e:	18d3      	adds	r3, r2, r3
 8001950:	2201      	movs	r2, #1
 8001952:	751a      	strb	r2, [r3, #20]
	} else if (data.ch[ch] < PWM_WIDTH_CENTER_US) {
		data.chActive[ch] = chActive_TrueRev;
	} else {
		data.chActive[ch] = chActive_False;
	}
}
 8001954:	e016      	b.n	8001984 <RADIO_processChannel+0x7c>
	} else if (data.ch[ch] < PWM_WIDTH_CENTER_US) {
 8001956:	1dfb      	adds	r3, r7, #7
 8001958:	781b      	ldrb	r3, [r3, #0]
 800195a:	4a0d      	ldr	r2, [pc, #52]	@ (8001990 <RADIO_processChannel+0x88>)
 800195c:	009b      	lsls	r3, r3, #2
 800195e:	18d3      	adds	r3, r2, r3
 8001960:	3304      	adds	r3, #4
 8001962:	681b      	ldr	r3, [r3, #0]
 8001964:	4a0c      	ldr	r2, [pc, #48]	@ (8001998 <RADIO_processChannel+0x90>)
 8001966:	4293      	cmp	r3, r2
 8001968:	d806      	bhi.n	8001978 <RADIO_processChannel+0x70>
		data.chActive[ch] = chActive_TrueRev;
 800196a:	1dfb      	adds	r3, r7, #7
 800196c:	781b      	ldrb	r3, [r3, #0]
 800196e:	4a08      	ldr	r2, [pc, #32]	@ (8001990 <RADIO_processChannel+0x88>)
 8001970:	18d3      	adds	r3, r2, r3
 8001972:	2202      	movs	r2, #2
 8001974:	751a      	strb	r2, [r3, #20]
}
 8001976:	e005      	b.n	8001984 <RADIO_processChannel+0x7c>
		data.chActive[ch] = chActive_False;
 8001978:	1dfb      	adds	r3, r7, #7
 800197a:	781b      	ldrb	r3, [r3, #0]
 800197c:	4a04      	ldr	r2, [pc, #16]	@ (8001990 <RADIO_processChannel+0x88>)
 800197e:	18d3      	adds	r3, r2, r3
 8001980:	2200      	movs	r2, #0
 8001982:	751a      	strb	r2, [r3, #20]
}
 8001984:	46c0      	nop			@ (mov r8, r8)
 8001986:	46bd      	mov	sp, r7
 8001988:	b003      	add	sp, #12
 800198a:	bd90      	pop	{r4, r7, pc}
 800198c:	200000e0 	.word	0x200000e0
 8001990:	200000f0 	.word	0x200000f0
 8001994:	000005dc 	.word	0x000005dc
 8001998:	000005db 	.word	0x000005db

0800199c <RADIO_CH1_IRQ>:
/* INTERRUPT ROUTINES									*/
/* ~~~~~~~~~~~~~~~~~~~~~~~~~~~~~~~~~~~~~~~~~~~~~~~~~~~~ */


static void RADIO_CH1_IRQ ( void )
{
 800199c:	b5b0      	push	{r4, r5, r7, lr}
 800199e:	b084      	sub	sp, #16
 80019a0:	af00      	add	r7, sp, #0
	// INITIALISE LOOP VARIABLES
	uint32_t 		now = TIM_Read(TIM_RADIO);
 80019a2:	4b24      	ldr	r3, [pc, #144]	@ (8001a34 <RADIO_CH1_IRQ+0x98>)
 80019a4:	681b      	ldr	r3, [r3, #0]
 80019a6:	0018      	movs	r0, r3
 80019a8:	f7ff fe25 	bl	80015f6 <TIM_Read>
 80019ac:	0003      	movs	r3, r0
 80019ae:	60fb      	str	r3, [r7, #12]
	bool 			pos = GPIO_Read(RADIO_PWM1_Pin);
 80019b0:	250b      	movs	r5, #11
 80019b2:	197c      	adds	r4, r7, r5
 80019b4:	2380      	movs	r3, #128	@ 0x80
 80019b6:	005b      	lsls	r3, r3, #1
 80019b8:	0018      	movs	r0, r3
 80019ba:	f000 ff52 	bl	8002862 <GPIO_Read>
 80019be:	0003      	movs	r3, r0
 80019c0:	7023      	strb	r3, [r4, #0]
	static uint32_t	tickHigh = 0;
	static uint32_t tickLow = 0;


	// IGNORE NOISE ON SIGNAL I/P THAT RETURNS FASTER THAN INTERRRUPT SERVICE
	if ( pos_p != pos )
 80019c2:	4b1d      	ldr	r3, [pc, #116]	@ (8001a38 <RADIO_CH1_IRQ+0x9c>)
 80019c4:	781b      	ldrb	r3, [r3, #0]
 80019c6:	197a      	adds	r2, r7, r5
 80019c8:	7812      	ldrb	r2, [r2, #0]
 80019ca:	429a      	cmp	r2, r3
 80019cc:	d028      	beq.n	8001a20 <RADIO_CH1_IRQ+0x84>
	{
		// RISING EDGE PULSE DETECTED
		if ( pos ) {
 80019ce:	197b      	adds	r3, r7, r5
 80019d0:	781b      	ldrb	r3, [r3, #0]
 80019d2:	2b00      	cmp	r3, #0
 80019d4:	d003      	beq.n	80019de <RADIO_CH1_IRQ+0x42>
			// ASSIGN VARIABLES TO USE ON PULSE LOW
			tickHigh = now;
 80019d6:	4b19      	ldr	r3, [pc, #100]	@ (8001a3c <RADIO_CH1_IRQ+0xa0>)
 80019d8:	68fa      	ldr	r2, [r7, #12]
 80019da:	601a      	str	r2, [r3, #0]
 80019dc:	e020      	b.n	8001a20 <RADIO_CH1_IRQ+0x84>
		}
		// FALLING EDGE PULSE DETECTED
		else {
			// CALCULATE SIGNAL PERIOD AND PULSE WIDTH
			uint32_t period = now - tickLow;
 80019de:	4b18      	ldr	r3, [pc, #96]	@ (8001a40 <RADIO_CH1_IRQ+0xa4>)
 80019e0:	681b      	ldr	r3, [r3, #0]
 80019e2:	68fa      	ldr	r2, [r7, #12]
 80019e4:	1ad3      	subs	r3, r2, r3
 80019e6:	607b      	str	r3, [r7, #4]
			uint32_t pulse = now - tickHigh;
 80019e8:	4b14      	ldr	r3, [pc, #80]	@ (8001a3c <RADIO_CH1_IRQ+0xa0>)
 80019ea:	681b      	ldr	r3, [r3, #0]
 80019ec:	68fa      	ldr	r2, [r7, #12]
 80019ee:	1ad3      	subs	r3, r2, r3
 80019f0:	603b      	str	r3, [r7, #0]
			// CHECK SIGNAL IS VALID
			if ( pulse <= PWM_WIDTH_ABSMAX_US 	&& pulse >= PWM_WIDTH_ABSMIN_US &&
 80019f2:	683b      	ldr	r3, [r7, #0]
 80019f4:	4a13      	ldr	r2, [pc, #76]	@ (8001a44 <RADIO_CH1_IRQ+0xa8>)
 80019f6:	4293      	cmp	r3, r2
 80019f8:	d80f      	bhi.n	8001a1a <RADIO_CH1_IRQ+0x7e>
 80019fa:	683a      	ldr	r2, [r7, #0]
 80019fc:	23c8      	movs	r3, #200	@ 0xc8
 80019fe:	009b      	lsls	r3, r3, #2
 8001a00:	429a      	cmp	r2, r3
 8001a02:	d30a      	bcc.n	8001a1a <RADIO_CH1_IRQ+0x7e>
 8001a04:	687b      	ldr	r3, [r7, #4]
 8001a06:	4a10      	ldr	r2, [pc, #64]	@ (8001a48 <RADIO_CH1_IRQ+0xac>)
 8001a08:	4293      	cmp	r3, r2
 8001a0a:	d806      	bhi.n	8001a1a <RADIO_CH1_IRQ+0x7e>
				 period <= PWM_PERIOD_MAX_US	&& period >= PWM_PERIOD_MIN_US )
 8001a0c:	687b      	ldr	r3, [r7, #4]
 8001a0e:	4a0f      	ldr	r2, [pc, #60]	@ (8001a4c <RADIO_CH1_IRQ+0xb0>)
 8001a10:	4293      	cmp	r3, r2
 8001a12:	d902      	bls.n	8001a1a <RADIO_CH1_IRQ+0x7e>
			{
				// ASSIGN PULSE TO TEMP DATA ARRAY
				rx[radioCH1] = pulse;
 8001a14:	4b0e      	ldr	r3, [pc, #56]	@ (8001a50 <RADIO_CH1_IRQ+0xb4>)
 8001a16:	683a      	ldr	r2, [r7, #0]
 8001a18:	601a      	str	r2, [r3, #0]
			}
			// UPDATE VARIABLES FOR NEXT LOOP
			tickLow = now;
 8001a1a:	4b09      	ldr	r3, [pc, #36]	@ (8001a40 <RADIO_CH1_IRQ+0xa4>)
 8001a1c:	68fa      	ldr	r2, [r7, #12]
 8001a1e:	601a      	str	r2, [r3, #0]
		}
	}

	//
	pos_p = pos;
 8001a20:	4b05      	ldr	r3, [pc, #20]	@ (8001a38 <RADIO_CH1_IRQ+0x9c>)
 8001a22:	220b      	movs	r2, #11
 8001a24:	18ba      	adds	r2, r7, r2
 8001a26:	7812      	ldrb	r2, [r2, #0]
 8001a28:	701a      	strb	r2, [r3, #0]
}
 8001a2a:	46c0      	nop			@ (mov r8, r8)
 8001a2c:	46bd      	mov	sp, r7
 8001a2e:	b004      	add	sp, #16
 8001a30:	bdb0      	pop	{r4, r5, r7, pc}
 8001a32:	46c0      	nop			@ (mov r8, r8)
 8001a34:	20000064 	.word	0x20000064
 8001a38:	2000011c 	.word	0x2000011c
 8001a3c:	20000120 	.word	0x20000120
 8001a40:	20000124 	.word	0x20000124
 8001a44:	00000898 	.word	0x00000898
 8001a48:	000061a8 	.word	0x000061a8
 8001a4c:	00003a97 	.word	0x00003a97
 8001a50:	200000e0 	.word	0x200000e0

08001a54 <RADIO_CH2_IRQ>:


static void RADIO_CH2_IRQ ( void )
{
 8001a54:	b5b0      	push	{r4, r5, r7, lr}
 8001a56:	b084      	sub	sp, #16
 8001a58:	af00      	add	r7, sp, #0
	bool pos = GPIO_Read(RADIO_PWM2_Pin);
 8001a5a:	250f      	movs	r5, #15
 8001a5c:	197c      	adds	r4, r7, r5
 8001a5e:	2380      	movs	r3, #128	@ 0x80
 8001a60:	009b      	lsls	r3, r3, #2
 8001a62:	0018      	movs	r0, r3
 8001a64:	f000 fefd 	bl	8002862 <GPIO_Read>
 8001a68:	0003      	movs	r3, r0
 8001a6a:	7023      	strb	r3, [r4, #0]
	uint32_t now = TIM_Read(TIM_RADIO);
 8001a6c:	4b21      	ldr	r3, [pc, #132]	@ (8001af4 <RADIO_CH2_IRQ+0xa0>)
 8001a6e:	681b      	ldr	r3, [r3, #0]
 8001a70:	0018      	movs	r0, r3
 8001a72:	f7ff fdc0 	bl	80015f6 <TIM_Read>
 8001a76:	0003      	movs	r3, r0
 8001a78:	60bb      	str	r3, [r7, #8]
	uint32_t pulse = 0;
 8001a7a:	2300      	movs	r3, #0
 8001a7c:	607b      	str	r3, [r7, #4]
	uint32_t period = 0;
 8001a7e:	2300      	movs	r3, #0
 8001a80:	603b      	str	r3, [r7, #0]
	static bool pos_p = false;
	static uint32_t tickHigh = 0;
	static uint32_t tickLow = 0;

	if ( pos_p != pos )
 8001a82:	4b1d      	ldr	r3, [pc, #116]	@ (8001af8 <RADIO_CH2_IRQ+0xa4>)
 8001a84:	781b      	ldrb	r3, [r3, #0]
 8001a86:	197a      	adds	r2, r7, r5
 8001a88:	7812      	ldrb	r2, [r2, #0]
 8001a8a:	429a      	cmp	r2, r3
 8001a8c:	d028      	beq.n	8001ae0 <RADIO_CH2_IRQ+0x8c>
	{
		if ( pos ) {
 8001a8e:	197b      	adds	r3, r7, r5
 8001a90:	781b      	ldrb	r3, [r3, #0]
 8001a92:	2b00      	cmp	r3, #0
 8001a94:	d003      	beq.n	8001a9e <RADIO_CH2_IRQ+0x4a>
			tickHigh = now;
 8001a96:	4b19      	ldr	r3, [pc, #100]	@ (8001afc <RADIO_CH2_IRQ+0xa8>)
 8001a98:	68ba      	ldr	r2, [r7, #8]
 8001a9a:	601a      	str	r2, [r3, #0]
 8001a9c:	e020      	b.n	8001ae0 <RADIO_CH2_IRQ+0x8c>
		} else {
			period = now - tickLow;
 8001a9e:	4b18      	ldr	r3, [pc, #96]	@ (8001b00 <RADIO_CH2_IRQ+0xac>)
 8001aa0:	681b      	ldr	r3, [r3, #0]
 8001aa2:	68ba      	ldr	r2, [r7, #8]
 8001aa4:	1ad3      	subs	r3, r2, r3
 8001aa6:	603b      	str	r3, [r7, #0]
			pulse = now - tickHigh;
 8001aa8:	4b14      	ldr	r3, [pc, #80]	@ (8001afc <RADIO_CH2_IRQ+0xa8>)
 8001aaa:	681b      	ldr	r3, [r3, #0]
 8001aac:	68ba      	ldr	r2, [r7, #8]
 8001aae:	1ad3      	subs	r3, r2, r3
 8001ab0:	607b      	str	r3, [r7, #4]
			if ( pulse <= PWM_WIDTH_ABSMAX_US 	&& pulse >= PWM_WIDTH_ABSMIN_US &&
 8001ab2:	687b      	ldr	r3, [r7, #4]
 8001ab4:	4a13      	ldr	r2, [pc, #76]	@ (8001b04 <RADIO_CH2_IRQ+0xb0>)
 8001ab6:	4293      	cmp	r3, r2
 8001ab8:	d80f      	bhi.n	8001ada <RADIO_CH2_IRQ+0x86>
 8001aba:	687a      	ldr	r2, [r7, #4]
 8001abc:	23c8      	movs	r3, #200	@ 0xc8
 8001abe:	009b      	lsls	r3, r3, #2
 8001ac0:	429a      	cmp	r2, r3
 8001ac2:	d30a      	bcc.n	8001ada <RADIO_CH2_IRQ+0x86>
 8001ac4:	683b      	ldr	r3, [r7, #0]
 8001ac6:	4a10      	ldr	r2, [pc, #64]	@ (8001b08 <RADIO_CH2_IRQ+0xb4>)
 8001ac8:	4293      	cmp	r3, r2
 8001aca:	d806      	bhi.n	8001ada <RADIO_CH2_IRQ+0x86>
				 period <= PWM_PERIOD_MAX_US	&& period >= PWM_PERIOD_MIN_US )
 8001acc:	683b      	ldr	r3, [r7, #0]
 8001ace:	4a0f      	ldr	r2, [pc, #60]	@ (8001b0c <RADIO_CH2_IRQ+0xb8>)
 8001ad0:	4293      	cmp	r3, r2
 8001ad2:	d902      	bls.n	8001ada <RADIO_CH2_IRQ+0x86>
			{
				rx[radioCH2] = pulse;
 8001ad4:	4b0e      	ldr	r3, [pc, #56]	@ (8001b10 <RADIO_CH2_IRQ+0xbc>)
 8001ad6:	687a      	ldr	r2, [r7, #4]
 8001ad8:	605a      	str	r2, [r3, #4]
			}
			tickLow = now;
 8001ada:	4b09      	ldr	r3, [pc, #36]	@ (8001b00 <RADIO_CH2_IRQ+0xac>)
 8001adc:	68ba      	ldr	r2, [r7, #8]
 8001ade:	601a      	str	r2, [r3, #0]
		}
	}
	pos_p = pos;
 8001ae0:	4b05      	ldr	r3, [pc, #20]	@ (8001af8 <RADIO_CH2_IRQ+0xa4>)
 8001ae2:	220f      	movs	r2, #15
 8001ae4:	18ba      	adds	r2, r7, r2
 8001ae6:	7812      	ldrb	r2, [r2, #0]
 8001ae8:	701a      	strb	r2, [r3, #0]
}
 8001aea:	46c0      	nop			@ (mov r8, r8)
 8001aec:	46bd      	mov	sp, r7
 8001aee:	b004      	add	sp, #16
 8001af0:	bdb0      	pop	{r4, r5, r7, pc}
 8001af2:	46c0      	nop			@ (mov r8, r8)
 8001af4:	20000064 	.word	0x20000064
 8001af8:	20000128 	.word	0x20000128
 8001afc:	2000012c 	.word	0x2000012c
 8001b00:	20000130 	.word	0x20000130
 8001b04:	00000898 	.word	0x00000898
 8001b08:	000061a8 	.word	0x000061a8
 8001b0c:	00003a97 	.word	0x00003a97
 8001b10:	200000e0 	.word	0x200000e0

08001b14 <RADIO_CH3_IRQ>:

#if RADIO_NUM_CHANNELS >= 3
static void RADIO_CH3_IRQ ( void )
{
 8001b14:	b5b0      	push	{r4, r5, r7, lr}
 8001b16:	b084      	sub	sp, #16
 8001b18:	af00      	add	r7, sp, #0
	bool pos = GPIO_Read(RADIO_PWM3_Pin);
 8001b1a:	250f      	movs	r5, #15
 8001b1c:	197c      	adds	r4, r7, r5
 8001b1e:	4b24      	ldr	r3, [pc, #144]	@ (8001bb0 <RADIO_CH3_IRQ+0x9c>)
 8001b20:	0018      	movs	r0, r3
 8001b22:	f000 fe9e 	bl	8002862 <GPIO_Read>
 8001b26:	0003      	movs	r3, r0
 8001b28:	7023      	strb	r3, [r4, #0]
	uint32_t now = TIM_Read(TIM_RADIO);
 8001b2a:	4b22      	ldr	r3, [pc, #136]	@ (8001bb4 <RADIO_CH3_IRQ+0xa0>)
 8001b2c:	681b      	ldr	r3, [r3, #0]
 8001b2e:	0018      	movs	r0, r3
 8001b30:	f7ff fd61 	bl	80015f6 <TIM_Read>
 8001b34:	0003      	movs	r3, r0
 8001b36:	60bb      	str	r3, [r7, #8]
	uint32_t pulse = 0;
 8001b38:	2300      	movs	r3, #0
 8001b3a:	607b      	str	r3, [r7, #4]
	uint32_t period = 0;
 8001b3c:	2300      	movs	r3, #0
 8001b3e:	603b      	str	r3, [r7, #0]
	static bool pos_p = false;
	static uint32_t tickHigh = 0;
	static uint32_t tickLow = 0;

	if ( pos_p != pos )
 8001b40:	4b1d      	ldr	r3, [pc, #116]	@ (8001bb8 <RADIO_CH3_IRQ+0xa4>)
 8001b42:	781b      	ldrb	r3, [r3, #0]
 8001b44:	197a      	adds	r2, r7, r5
 8001b46:	7812      	ldrb	r2, [r2, #0]
 8001b48:	429a      	cmp	r2, r3
 8001b4a:	d028      	beq.n	8001b9e <RADIO_CH3_IRQ+0x8a>
	{
		if ( pos ) {
 8001b4c:	197b      	adds	r3, r7, r5
 8001b4e:	781b      	ldrb	r3, [r3, #0]
 8001b50:	2b00      	cmp	r3, #0
 8001b52:	d003      	beq.n	8001b5c <RADIO_CH3_IRQ+0x48>
			tickHigh = now;
 8001b54:	4b19      	ldr	r3, [pc, #100]	@ (8001bbc <RADIO_CH3_IRQ+0xa8>)
 8001b56:	68ba      	ldr	r2, [r7, #8]
 8001b58:	601a      	str	r2, [r3, #0]
 8001b5a:	e020      	b.n	8001b9e <RADIO_CH3_IRQ+0x8a>
		} else {
			period = now - tickLow;
 8001b5c:	4b18      	ldr	r3, [pc, #96]	@ (8001bc0 <RADIO_CH3_IRQ+0xac>)
 8001b5e:	681b      	ldr	r3, [r3, #0]
 8001b60:	68ba      	ldr	r2, [r7, #8]
 8001b62:	1ad3      	subs	r3, r2, r3
 8001b64:	603b      	str	r3, [r7, #0]
			pulse = now - tickHigh;
 8001b66:	4b15      	ldr	r3, [pc, #84]	@ (8001bbc <RADIO_CH3_IRQ+0xa8>)
 8001b68:	681b      	ldr	r3, [r3, #0]
 8001b6a:	68ba      	ldr	r2, [r7, #8]
 8001b6c:	1ad3      	subs	r3, r2, r3
 8001b6e:	607b      	str	r3, [r7, #4]
			if ( pulse <= PWM_WIDTH_ABSMAX_US 	&& pulse >= PWM_WIDTH_ABSMIN_US &&
 8001b70:	687b      	ldr	r3, [r7, #4]
 8001b72:	4a14      	ldr	r2, [pc, #80]	@ (8001bc4 <RADIO_CH3_IRQ+0xb0>)
 8001b74:	4293      	cmp	r3, r2
 8001b76:	d80f      	bhi.n	8001b98 <RADIO_CH3_IRQ+0x84>
 8001b78:	687a      	ldr	r2, [r7, #4]
 8001b7a:	23c8      	movs	r3, #200	@ 0xc8
 8001b7c:	009b      	lsls	r3, r3, #2
 8001b7e:	429a      	cmp	r2, r3
 8001b80:	d30a      	bcc.n	8001b98 <RADIO_CH3_IRQ+0x84>
 8001b82:	683b      	ldr	r3, [r7, #0]
 8001b84:	4a10      	ldr	r2, [pc, #64]	@ (8001bc8 <RADIO_CH3_IRQ+0xb4>)
 8001b86:	4293      	cmp	r3, r2
 8001b88:	d806      	bhi.n	8001b98 <RADIO_CH3_IRQ+0x84>
				 period <= PWM_PERIOD_MAX_US	&& period >= PWM_PERIOD_MIN_US )
 8001b8a:	683b      	ldr	r3, [r7, #0]
 8001b8c:	4a0f      	ldr	r2, [pc, #60]	@ (8001bcc <RADIO_CH3_IRQ+0xb8>)
 8001b8e:	4293      	cmp	r3, r2
 8001b90:	d902      	bls.n	8001b98 <RADIO_CH3_IRQ+0x84>
			{
				rx[radioCH3] = pulse;
 8001b92:	4b0f      	ldr	r3, [pc, #60]	@ (8001bd0 <RADIO_CH3_IRQ+0xbc>)
 8001b94:	687a      	ldr	r2, [r7, #4]
 8001b96:	609a      	str	r2, [r3, #8]
			}
			tickLow = now;
 8001b98:	4b09      	ldr	r3, [pc, #36]	@ (8001bc0 <RADIO_CH3_IRQ+0xac>)
 8001b9a:	68ba      	ldr	r2, [r7, #8]
 8001b9c:	601a      	str	r2, [r3, #0]
		}
	}
	pos_p = pos;
 8001b9e:	4b06      	ldr	r3, [pc, #24]	@ (8001bb8 <RADIO_CH3_IRQ+0xa4>)
 8001ba0:	220f      	movs	r2, #15
 8001ba2:	18ba      	adds	r2, r7, r2
 8001ba4:	7812      	ldrb	r2, [r2, #0]
 8001ba6:	701a      	strb	r2, [r3, #0]
}
 8001ba8:	46c0      	nop			@ (mov r8, r8)
 8001baa:	46bd      	mov	sp, r7
 8001bac:	b004      	add	sp, #16
 8001bae:	bdb0      	pop	{r4, r5, r7, pc}
 8001bb0:	00020040 	.word	0x00020040
 8001bb4:	20000064 	.word	0x20000064
 8001bb8:	20000134 	.word	0x20000134
 8001bbc:	20000138 	.word	0x20000138
 8001bc0:	2000013c 	.word	0x2000013c
 8001bc4:	00000898 	.word	0x00000898
 8001bc8:	000061a8 	.word	0x000061a8
 8001bcc:	00003a97 	.word	0x00003a97
 8001bd0:	200000e0 	.word	0x200000e0

08001bd4 <RADIO_CH4_IRQ>:
#endif

#if RADIO_NUM_CHANNELS >= 4
static void RADIO_CH4_IRQ ( void )
{
 8001bd4:	b5b0      	push	{r4, r5, r7, lr}
 8001bd6:	b084      	sub	sp, #16
 8001bd8:	af00      	add	r7, sp, #0
	bool pos = GPIO_Read(RADIO_PWM4_Pin);
 8001bda:	250f      	movs	r5, #15
 8001bdc:	197c      	adds	r4, r7, r5
 8001bde:	2380      	movs	r3, #128	@ 0x80
 8001be0:	00db      	lsls	r3, r3, #3
 8001be2:	0018      	movs	r0, r3
 8001be4:	f000 fe3d 	bl	8002862 <GPIO_Read>
 8001be8:	0003      	movs	r3, r0
 8001bea:	7023      	strb	r3, [r4, #0]
	uint32_t now = TIM_Read(TIM_RADIO);
 8001bec:	4b21      	ldr	r3, [pc, #132]	@ (8001c74 <RADIO_CH4_IRQ+0xa0>)
 8001bee:	681b      	ldr	r3, [r3, #0]
 8001bf0:	0018      	movs	r0, r3
 8001bf2:	f7ff fd00 	bl	80015f6 <TIM_Read>
 8001bf6:	0003      	movs	r3, r0
 8001bf8:	60bb      	str	r3, [r7, #8]
	uint32_t pulse = 0;
 8001bfa:	2300      	movs	r3, #0
 8001bfc:	607b      	str	r3, [r7, #4]
	uint32_t period = 0;
 8001bfe:	2300      	movs	r3, #0
 8001c00:	603b      	str	r3, [r7, #0]
	static bool pos_p = false;
	static uint32_t tickHigh = 0;
	static uint32_t tickLow = 0;

	if ( pos_p != pos )
 8001c02:	4b1d      	ldr	r3, [pc, #116]	@ (8001c78 <RADIO_CH4_IRQ+0xa4>)
 8001c04:	781b      	ldrb	r3, [r3, #0]
 8001c06:	197a      	adds	r2, r7, r5
 8001c08:	7812      	ldrb	r2, [r2, #0]
 8001c0a:	429a      	cmp	r2, r3
 8001c0c:	d028      	beq.n	8001c60 <RADIO_CH4_IRQ+0x8c>
	{
		if ( pos ) {
 8001c0e:	197b      	adds	r3, r7, r5
 8001c10:	781b      	ldrb	r3, [r3, #0]
 8001c12:	2b00      	cmp	r3, #0
 8001c14:	d003      	beq.n	8001c1e <RADIO_CH4_IRQ+0x4a>
			tickHigh = now;
 8001c16:	4b19      	ldr	r3, [pc, #100]	@ (8001c7c <RADIO_CH4_IRQ+0xa8>)
 8001c18:	68ba      	ldr	r2, [r7, #8]
 8001c1a:	601a      	str	r2, [r3, #0]
 8001c1c:	e020      	b.n	8001c60 <RADIO_CH4_IRQ+0x8c>
		} else {
			period = now - tickLow;
 8001c1e:	4b18      	ldr	r3, [pc, #96]	@ (8001c80 <RADIO_CH4_IRQ+0xac>)
 8001c20:	681b      	ldr	r3, [r3, #0]
 8001c22:	68ba      	ldr	r2, [r7, #8]
 8001c24:	1ad3      	subs	r3, r2, r3
 8001c26:	603b      	str	r3, [r7, #0]
			pulse = now - tickHigh;
 8001c28:	4b14      	ldr	r3, [pc, #80]	@ (8001c7c <RADIO_CH4_IRQ+0xa8>)
 8001c2a:	681b      	ldr	r3, [r3, #0]
 8001c2c:	68ba      	ldr	r2, [r7, #8]
 8001c2e:	1ad3      	subs	r3, r2, r3
 8001c30:	607b      	str	r3, [r7, #4]
			if ( pulse <= PWM_WIDTH_ABSMAX_US 	&& pulse >= PWM_WIDTH_ABSMIN_US &&
 8001c32:	687b      	ldr	r3, [r7, #4]
 8001c34:	4a13      	ldr	r2, [pc, #76]	@ (8001c84 <RADIO_CH4_IRQ+0xb0>)
 8001c36:	4293      	cmp	r3, r2
 8001c38:	d80f      	bhi.n	8001c5a <RADIO_CH4_IRQ+0x86>
 8001c3a:	687a      	ldr	r2, [r7, #4]
 8001c3c:	23c8      	movs	r3, #200	@ 0xc8
 8001c3e:	009b      	lsls	r3, r3, #2
 8001c40:	429a      	cmp	r2, r3
 8001c42:	d30a      	bcc.n	8001c5a <RADIO_CH4_IRQ+0x86>
 8001c44:	683b      	ldr	r3, [r7, #0]
 8001c46:	4a10      	ldr	r2, [pc, #64]	@ (8001c88 <RADIO_CH4_IRQ+0xb4>)
 8001c48:	4293      	cmp	r3, r2
 8001c4a:	d806      	bhi.n	8001c5a <RADIO_CH4_IRQ+0x86>
				 period <= PWM_PERIOD_MAX_US	&& period >= PWM_PERIOD_MIN_US )
 8001c4c:	683b      	ldr	r3, [r7, #0]
 8001c4e:	4a0f      	ldr	r2, [pc, #60]	@ (8001c8c <RADIO_CH4_IRQ+0xb8>)
 8001c50:	4293      	cmp	r3, r2
 8001c52:	d902      	bls.n	8001c5a <RADIO_CH4_IRQ+0x86>
			{
				rx[radioCH4] = pulse;
 8001c54:	4b0e      	ldr	r3, [pc, #56]	@ (8001c90 <RADIO_CH4_IRQ+0xbc>)
 8001c56:	687a      	ldr	r2, [r7, #4]
 8001c58:	60da      	str	r2, [r3, #12]
			}
			tickLow = now;
 8001c5a:	4b09      	ldr	r3, [pc, #36]	@ (8001c80 <RADIO_CH4_IRQ+0xac>)
 8001c5c:	68ba      	ldr	r2, [r7, #8]
 8001c5e:	601a      	str	r2, [r3, #0]
		}
	}
	pos_p = pos;
 8001c60:	4b05      	ldr	r3, [pc, #20]	@ (8001c78 <RADIO_CH4_IRQ+0xa4>)
 8001c62:	220f      	movs	r2, #15
 8001c64:	18ba      	adds	r2, r7, r2
 8001c66:	7812      	ldrb	r2, [r2, #0]
 8001c68:	701a      	strb	r2, [r3, #0]
}
 8001c6a:	46c0      	nop			@ (mov r8, r8)
 8001c6c:	46bd      	mov	sp, r7
 8001c6e:	b004      	add	sp, #16
 8001c70:	bdb0      	pop	{r4, r5, r7, pc}
 8001c72:	46c0      	nop			@ (mov r8, r8)
 8001c74:	20000064 	.word	0x20000064
 8001c78:	20000140 	.word	0x20000140
 8001c7c:	20000144 	.word	0x20000144
 8001c80:	20000148 	.word	0x20000148
 8001c84:	00000898 	.word	0x00000898
 8001c88:	000061a8 	.word	0x000061a8
 8001c8c:	00003a97 	.word	0x00003a97
 8001c90:	200000e0 	.word	0x200000e0

08001c94 <TEMP_Init>:
/*
 * Initialize temperature module
 * ADC_Init() MUST be called prior to TEMP_Init()
 */
void TEMP_Init ( void )
{
 8001c94:	b580      	push	{r7, lr}
 8001c96:	af00      	add	r7, sp, #0
	// TAKE INITIAL TEMPERATURE READING
	TEMP_calcStartup();
 8001c98:	f000 f814 	bl	8001cc4 <TEMP_calcStartup>

	// SET RELEVANT FLAGS
	if ( (tempSum / TEMP_ARRAY_LEN) >= FAULT_SET_oC ) {
 8001c9c:	4b07      	ldr	r3, [pc, #28]	@ (8001cbc <TEMP_Init+0x28>)
 8001c9e:	681a      	ldr	r2, [r3, #0]
 8001ca0:	2396      	movs	r3, #150	@ 0x96
 8001ca2:	005b      	lsls	r3, r3, #1
 8001ca4:	429a      	cmp	r2, r3
 8001ca6:	d303      	bcc.n	8001cb0 <TEMP_Init+0x1c>
		faultTemp = true;
 8001ca8:	4b05      	ldr	r3, [pc, #20]	@ (8001cc0 <TEMP_Init+0x2c>)
 8001caa:	2201      	movs	r2, #1
 8001cac:	701a      	strb	r2, [r3, #0]
	} else {
		faultTemp = false;
	}
}
 8001cae:	e002      	b.n	8001cb6 <TEMP_Init+0x22>
		faultTemp = false;
 8001cb0:	4b03      	ldr	r3, [pc, #12]	@ (8001cc0 <TEMP_Init+0x2c>)
 8001cb2:	2200      	movs	r2, #0
 8001cb4:	701a      	strb	r2, [r3, #0]
}
 8001cb6:	46c0      	nop			@ (mov r8, r8)
 8001cb8:	46bd      	mov	sp, r7
 8001cba:	bd80      	pop	{r7, pc}
 8001cbc:	2000015c 	.word	0x2000015c
 8001cc0:	2000014c 	.word	0x2000014c

08001cc4 <TEMP_calcStartup>:

/*
 * Handle startup condition to prime temperature data array prior to normal operation
 */
static void TEMP_calcStartup ( void )
{
 8001cc4:	b580      	push	{r7, lr}
 8001cc6:	b082      	sub	sp, #8
 8001cc8:	af00      	add	r7, sp, #0
	// ADD TEMP DATA TO ENTIRE ARRAY
	for ( uint8_t i = 0; i < TEMP_ARRAY_LEN; i++ )
 8001cca:	1dfb      	adds	r3, r7, #7
 8001ccc:	2200      	movs	r2, #0
 8001cce:	701a      	strb	r2, [r3, #0]
 8001cd0:	e018      	b.n	8001d04 <TEMP_calcStartup+0x40>
	{
		// READ AND CALC TEMP
		tempArray[i] = ADC_ReadDieTemp();
 8001cd2:	f000 fa5f 	bl	8002194 <ADC_ReadDieTemp>
 8001cd6:	0001      	movs	r1, r0
 8001cd8:	1dfb      	adds	r3, r7, #7
 8001cda:	781a      	ldrb	r2, [r3, #0]
 8001cdc:	4b0e      	ldr	r3, [pc, #56]	@ (8001d18 <TEMP_calcStartup+0x54>)
 8001cde:	0092      	lsls	r2, r2, #2
 8001ce0:	50d1      	str	r1, [r2, r3]
		tempSum += tempArray[i];
 8001ce2:	1dfb      	adds	r3, r7, #7
 8001ce4:	781a      	ldrb	r2, [r3, #0]
 8001ce6:	4b0c      	ldr	r3, [pc, #48]	@ (8001d18 <TEMP_calcStartup+0x54>)
 8001ce8:	0092      	lsls	r2, r2, #2
 8001cea:	58d2      	ldr	r2, [r2, r3]
 8001cec:	4b0b      	ldr	r3, [pc, #44]	@ (8001d1c <TEMP_calcStartup+0x58>)
 8001cee:	681b      	ldr	r3, [r3, #0]
 8001cf0:	18d2      	adds	r2, r2, r3
 8001cf2:	4b0a      	ldr	r3, [pc, #40]	@ (8001d1c <TEMP_calcStartup+0x58>)
 8001cf4:	601a      	str	r2, [r3, #0]
		// DELAY TO ALLOW TEMP TO STABILISE
		CORE_Idle();
 8001cf6:	f000 fb53 	bl	80023a0 <CORE_Idle>
	for ( uint8_t i = 0; i < TEMP_ARRAY_LEN; i++ )
 8001cfa:	1dfb      	adds	r3, r7, #7
 8001cfc:	781a      	ldrb	r2, [r3, #0]
 8001cfe:	1dfb      	adds	r3, r7, #7
 8001d00:	3201      	adds	r2, #1
 8001d02:	701a      	strb	r2, [r3, #0]
 8001d04:	1dfb      	adds	r3, r7, #7
 8001d06:	781b      	ldrb	r3, [r3, #0]
 8001d08:	2b02      	cmp	r3, #2
 8001d0a:	d9e2      	bls.n	8001cd2 <TEMP_calcStartup+0xe>
	}
}
 8001d0c:	46c0      	nop			@ (mov r8, r8)
 8001d0e:	46c0      	nop			@ (mov r8, r8)
 8001d10:	46bd      	mov	sp, r7
 8001d12:	b002      	add	sp, #8
 8001d14:	bd80      	pop	{r7, pc}
 8001d16:	46c0      	nop			@ (mov r8, r8)
 8001d18:	20000150 	.word	0x20000150
 8001d1c:	2000015c 	.word	0x2000015c

08001d20 <main>:
/* ~~~~~~~~~~~~~~~~~~~~~~~~~~~~~~~~~~~~~~~~~~~~~~~~~~~~ */
/* PUBLIC FUNCTIONS										*/
/* ~~~~~~~~~~~~~~~~~~~~~~~~~~~~~~~~~~~~~~~~~~~~~~~~~~~~ */


int main ( void ) {
 8001d20:	b580      	push	{r7, lr}
 8001d22:	af00      	add	r7, sp, #0
	// STARTUP PROCEDURE
	CORE_Init();
 8001d24:	f000 fb12 	bl	800234c <CORE_Init>
	SYSTEM_Init();
 8001d28:	f000 f80e 	bl	8001d48 <SYSTEM_Init>
	ADC_Init();
 8001d2c:	f000 f9c6 	bl	80020bc <ADC_Init>
	LED_Init();
 8001d30:	f7ff faa8 	bl	8001284 <LED_Init>
	TEMP_Init();
 8001d34:	f7ff ffae 	bl	8001c94 <TEMP_Init>

	RADIO_Init();
 8001d38:	f7ff fc68 	bl	800160c <RADIO_Init>
	MOTOR_Init();
 8001d3c:	f7ff fadc 	bl	80012f8 <MOTOR_Init>
//		// Run System Updates
//		SYSTEM_Update();
//		MOTOR_Update();

		// Loop Pacing
		CORE_Idle();
 8001d40:	f000 fb2e 	bl	80023a0 <CORE_Idle>
 8001d44:	e7fc      	b.n	8001d40 <main+0x20>
	...

08001d48 <SYSTEM_Init>:

/*
 *
 */
void SYSTEM_Init ( void )
{
 8001d48:	b580      	push	{r7, lr}
 8001d4a:	af00      	add	r7, sp, #0
	// READ IN CONFIGURATION FROM FPROM
	FPROM_Read( CONFIG_FPROM_OFFSET, &config, sizeof(config) );
 8001d4c:	4b1c      	ldr	r3, [pc, #112]	@ (8001dc0 <SYSTEM_Init+0x78>)
 8001d4e:	221c      	movs	r2, #28
 8001d50:	0019      	movs	r1, r3
 8001d52:	2000      	movs	r0, #0
 8001d54:	f000 f952 	bl	8001ffc <FPROM_Read>

	// CHECK FOR VALID CONFIG
	// TODO: Actually check all calibration values are valid
	// TODO: Do a second read following the write
	// CHECK FOR CORRECT CONFIG HASH VALUES
	if ((config.hashA != CONFIG_HASH_A) || (config.hashB != CONFIG_HASH_B))
 8001d58:	4b19      	ldr	r3, [pc, #100]	@ (8001dc0 <SYSTEM_Init+0x78>)
 8001d5a:	681b      	ldr	r3, [r3, #0]
 8001d5c:	4a19      	ldr	r2, [pc, #100]	@ (8001dc4 <SYSTEM_Init+0x7c>)
 8001d5e:	4293      	cmp	r3, r2
 8001d60:	d104      	bne.n	8001d6c <SYSTEM_Init+0x24>
 8001d62:	4b17      	ldr	r3, [pc, #92]	@ (8001dc0 <SYSTEM_Init+0x78>)
 8001d64:	699b      	ldr	r3, [r3, #24]
 8001d66:	4a18      	ldr	r2, [pc, #96]	@ (8001dc8 <SYSTEM_Init+0x80>)
 8001d68:	4293      	cmp	r3, r2
 8001d6a:	d01d      	beq.n	8001da8 <SYSTEM_Init+0x60>
	{
		// FRESH DEVICE USED, OF FAILED WRITE, SO WRITE DEFAULT CONFIG TO EEPROM
		config.hashA = 				CONFIG_HASH_A;
 8001d6c:	4b14      	ldr	r3, [pc, #80]	@ (8001dc0 <SYSTEM_Init+0x78>)
 8001d6e:	4a15      	ldr	r2, [pc, #84]	@ (8001dc4 <SYSTEM_Init+0x7c>)
 8001d70:	601a      	str	r2, [r3, #0]
		config.mode = 				CONFIG_ARCADE;
 8001d72:	4b13      	ldr	r3, [pc, #76]	@ (8001dc0 <SYSTEM_Init+0x78>)
 8001d74:	2201      	movs	r2, #1
 8001d76:	711a      	strb	r2, [r3, #4]
		config.motorBraking_EN =	true;
 8001d78:	4b11      	ldr	r3, [pc, #68]	@ (8001dc0 <SYSTEM_Init+0x78>)
 8001d7a:	2201      	movs	r2, #1
 8001d7c:	715a      	strb	r2, [r3, #5]
		config.motorA_ch = 			0;
 8001d7e:	4b10      	ldr	r3, [pc, #64]	@ (8001dc0 <SYSTEM_Init+0x78>)
 8001d80:	2200      	movs	r2, #0
 8001d82:	609a      	str	r2, [r3, #8]
		config.motorA_rev = 		false;
 8001d84:	4b0e      	ldr	r3, [pc, #56]	@ (8001dc0 <SYSTEM_Init+0x78>)
 8001d86:	2200      	movs	r2, #0
 8001d88:	731a      	strb	r2, [r3, #12]
		config.motorB_ch = 			1;
 8001d8a:	4b0d      	ldr	r3, [pc, #52]	@ (8001dc0 <SYSTEM_Init+0x78>)
 8001d8c:	2201      	movs	r2, #1
 8001d8e:	611a      	str	r2, [r3, #16]
		config.motorB_rev = 		false;
 8001d90:	4b0b      	ldr	r3, [pc, #44]	@ (8001dc0 <SYSTEM_Init+0x78>)
 8001d92:	2200      	movs	r2, #0
 8001d94:	751a      	strb	r2, [r3, #20]
		config.hashB = 				CONFIG_HASH_B;
 8001d96:	4b0a      	ldr	r3, [pc, #40]	@ (8001dc0 <SYSTEM_Init+0x78>)
 8001d98:	4a0b      	ldr	r2, [pc, #44]	@ (8001dc8 <SYSTEM_Init+0x80>)
 8001d9a:	619a      	str	r2, [r3, #24]

		FPROM_Write(CONFIG_FPROM_OFFSET, &config, sizeof(config));
 8001d9c:	4b08      	ldr	r3, [pc, #32]	@ (8001dc0 <SYSTEM_Init+0x78>)
 8001d9e:	221c      	movs	r2, #28
 8001da0:	0019      	movs	r1, r3
 8001da2:	2000      	movs	r0, #0
 8001da4:	f000 f948 	bl	8002038 <FPROM_Write>
	}

	//
	configVerified = true;
 8001da8:	4b08      	ldr	r3, [pc, #32]	@ (8001dcc <SYSTEM_Init+0x84>)
 8001daa:	2201      	movs	r2, #1
 8001dac:	701a      	strb	r2, [r3, #0]

	//
	dataPtr = RADIO_getDataPtr();
 8001dae:	f7ff fd63 	bl	8001878 <RADIO_getDataPtr>
 8001db2:	0002      	movs	r2, r0
 8001db4:	4b06      	ldr	r3, [pc, #24]	@ (8001dd0 <SYSTEM_Init+0x88>)
 8001db6:	601a      	str	r2, [r3, #0]
}
 8001db8:	46c0      	nop			@ (mov r8, r8)
 8001dba:	46bd      	mov	sp, r7
 8001dbc:	bd80      	pop	{r7, pc}
 8001dbe:	46c0      	nop			@ (mov r8, r8)
 8001dc0:	20000164 	.word	0x20000164
 8001dc4:	8ca86362 	.word	0x8ca86362
 8001dc8:	8ca86363 	.word	0x8ca86363
 8001dcc:	20000160 	.word	0x20000160
 8001dd0:	20000180 	.word	0x20000180

08001dd4 <SystemInit>:
  * @brief  Setup the microcontroller system.
  * @param  None
  * @retval None
  */
void SystemInit(void)
{
 8001dd4:	b580      	push	{r7, lr}
 8001dd6:	af00      	add	r7, sp, #0
  
  /* Configure the Vector Table location add offset address ------------------*/
#ifdef VECT_TAB_SRAM
  SCB->VTOR = SRAM_BASE | VECT_TAB_OFFSET; /* Vector Table Relocation in Internal SRAM */
#else
  SCB->VTOR = FLASH_BASE | VECT_TAB_OFFSET; /* Vector Table Relocation in Internal FLASH */
 8001dd8:	4b03      	ldr	r3, [pc, #12]	@ (8001de8 <SystemInit+0x14>)
 8001dda:	2280      	movs	r2, #128	@ 0x80
 8001ddc:	0512      	lsls	r2, r2, #20
 8001dde:	609a      	str	r2, [r3, #8]
#endif
}
 8001de0:	46c0      	nop			@ (mov r8, r8)
 8001de2:	46bd      	mov	sp, r7
 8001de4:	bd80      	pop	{r7, pc}
 8001de6:	46c0      	nop			@ (mov r8, r8)
 8001de8:	e000ed00 	.word	0xe000ed00

08001dec <Reset_Handler>:

  .section .text.Reset_Handler
  .weak Reset_Handler
  .type Reset_Handler, %function
Reset_Handler:
  ldr   r0, =_estack
 8001dec:	480d      	ldr	r0, [pc, #52]	@ (8001e24 <LoopForever+0x2>)
  mov   sp, r0          /* set stack pointer */
 8001dee:	4685      	mov	sp, r0
/* Call the clock system initialization function.*/
  bl  SystemInit
 8001df0:	f7ff fff0 	bl	8001dd4 <SystemInit>

/* Copy the data segment initializers from flash to SRAM */
  movs r1, #0
 8001df4:	2100      	movs	r1, #0
  b LoopCopyDataInit
 8001df6:	e003      	b.n	8001e00 <LoopCopyDataInit>

08001df8 <CopyDataInit>:

CopyDataInit:
  ldr r3, =_sidata
 8001df8:	4b0b      	ldr	r3, [pc, #44]	@ (8001e28 <LoopForever+0x6>)
  ldr r3, [r3, r1]
 8001dfa:	585b      	ldr	r3, [r3, r1]
  str r3, [r0, r1]
 8001dfc:	5043      	str	r3, [r0, r1]
  adds r1, r1, #4
 8001dfe:	3104      	adds	r1, #4

08001e00 <LoopCopyDataInit>:

LoopCopyDataInit:
  ldr r0, =_sdata
 8001e00:	480a      	ldr	r0, [pc, #40]	@ (8001e2c <LoopForever+0xa>)
  ldr r3, =_edata
 8001e02:	4b0b      	ldr	r3, [pc, #44]	@ (8001e30 <LoopForever+0xe>)
  adds r2, r0, r1
 8001e04:	1842      	adds	r2, r0, r1
  cmp r2, r3
 8001e06:	429a      	cmp	r2, r3
  bcc CopyDataInit
 8001e08:	d3f6      	bcc.n	8001df8 <CopyDataInit>
  ldr r2, =_sbss
 8001e0a:	4a0a      	ldr	r2, [pc, #40]	@ (8001e34 <LoopForever+0x12>)
  b LoopFillZerobss
 8001e0c:	e002      	b.n	8001e14 <LoopFillZerobss>

08001e0e <FillZerobss>:
/* Zero fill the bss segment. */
FillZerobss:
  movs r3, #0
 8001e0e:	2300      	movs	r3, #0
  str  r3, [r2]
 8001e10:	6013      	str	r3, [r2, #0]
  adds r2, r2, #4
 8001e12:	3204      	adds	r2, #4

08001e14 <LoopFillZerobss>:


LoopFillZerobss:
  ldr r3, = _ebss
 8001e14:	4b08      	ldr	r3, [pc, #32]	@ (8001e38 <LoopForever+0x16>)
  cmp r2, r3
 8001e16:	429a      	cmp	r2, r3
  bcc FillZerobss
 8001e18:	d3f9      	bcc.n	8001e0e <FillZerobss>


/* Call static constructors */
  bl __libc_init_array
 8001e1a:	f001 f923 	bl	8003064 <__libc_init_array>
/* Call the application's entry point.*/
  bl main
 8001e1e:	f7ff ff7f 	bl	8001d20 <main>

08001e22 <LoopForever>:

LoopForever:
    b LoopForever
 8001e22:	e7fe      	b.n	8001e22 <LoopForever>
  ldr   r0, =_estack
 8001e24:	20003000 	.word	0x20003000
  ldr r3, =_sidata
 8001e28:	08003120 	.word	0x08003120
  ldr r0, =_sdata
 8001e2c:	20000000 	.word	0x20000000
  ldr r3, =_edata
 8001e30:	200000a0 	.word	0x200000a0
  ldr r2, =_sbss
 8001e34:	200000a0 	.word	0x200000a0
  ldr r3, = _ebss
 8001e38:	200001cc 	.word	0x200001cc

08001e3c <ADC1_IRQHandler>:
 * @retval : None
*/
    .section .text.Default_Handler,"ax",%progbits
Default_Handler:
Infinite_Loop:
  b Infinite_Loop
 8001e3c:	e7fe      	b.n	8001e3c <ADC1_IRQHandler>
	...

08001e40 <__NVIC_EnableIRQ>:
  \details Enables a device specific interrupt in the NVIC interrupt controller.
  \param [in]      IRQn  Device specific interrupt number.
  \note    IRQn must not be negative.
 */
__STATIC_INLINE void __NVIC_EnableIRQ(IRQn_Type IRQn)
{
 8001e40:	b580      	push	{r7, lr}
 8001e42:	b082      	sub	sp, #8
 8001e44:	af00      	add	r7, sp, #0
 8001e46:	0002      	movs	r2, r0
 8001e48:	1dfb      	adds	r3, r7, #7
 8001e4a:	701a      	strb	r2, [r3, #0]
  if ((int32_t)(IRQn) >= 0)
 8001e4c:	1dfb      	adds	r3, r7, #7
 8001e4e:	781b      	ldrb	r3, [r3, #0]
 8001e50:	2b7f      	cmp	r3, #127	@ 0x7f
 8001e52:	d809      	bhi.n	8001e68 <__NVIC_EnableIRQ+0x28>
  {
    __COMPILER_BARRIER();
    NVIC->ISER[0U] = (uint32_t)(1UL << (((uint32_t)IRQn) & 0x1FUL));
 8001e54:	1dfb      	adds	r3, r7, #7
 8001e56:	781b      	ldrb	r3, [r3, #0]
 8001e58:	001a      	movs	r2, r3
 8001e5a:	231f      	movs	r3, #31
 8001e5c:	401a      	ands	r2, r3
 8001e5e:	4b04      	ldr	r3, [pc, #16]	@ (8001e70 <__NVIC_EnableIRQ+0x30>)
 8001e60:	2101      	movs	r1, #1
 8001e62:	4091      	lsls	r1, r2
 8001e64:	000a      	movs	r2, r1
 8001e66:	601a      	str	r2, [r3, #0]
    __COMPILER_BARRIER();
  }
}
 8001e68:	46c0      	nop			@ (mov r8, r8)
 8001e6a:	46bd      	mov	sp, r7
 8001e6c:	b002      	add	sp, #8
 8001e6e:	bd80      	pop	{r7, pc}
 8001e70:	e000e100 	.word	0xe000e100

08001e74 <__NVIC_SetPriority>:
  \param [in]      IRQn  Interrupt number.
  \param [in]  priority  Priority to set.
  \note    The priority cannot be set for every processor exception.
 */
__STATIC_INLINE void __NVIC_SetPriority(IRQn_Type IRQn, uint32_t priority)
{
 8001e74:	b590      	push	{r4, r7, lr}
 8001e76:	b083      	sub	sp, #12
 8001e78:	af00      	add	r7, sp, #0
 8001e7a:	0002      	movs	r2, r0
 8001e7c:	6039      	str	r1, [r7, #0]
 8001e7e:	1dfb      	adds	r3, r7, #7
 8001e80:	701a      	strb	r2, [r3, #0]
  if ((int32_t)(IRQn) >= 0)
 8001e82:	1dfb      	adds	r3, r7, #7
 8001e84:	781b      	ldrb	r3, [r3, #0]
 8001e86:	2b7f      	cmp	r3, #127	@ 0x7f
 8001e88:	d828      	bhi.n	8001edc <__NVIC_SetPriority+0x68>
  {
    NVIC->IP[_IP_IDX(IRQn)]  = ((uint32_t)(NVIC->IP[_IP_IDX(IRQn)]  & ~(0xFFUL << _BIT_SHIFT(IRQn))) |
 8001e8a:	4a2f      	ldr	r2, [pc, #188]	@ (8001f48 <__NVIC_SetPriority+0xd4>)
 8001e8c:	1dfb      	adds	r3, r7, #7
 8001e8e:	781b      	ldrb	r3, [r3, #0]
 8001e90:	b25b      	sxtb	r3, r3
 8001e92:	089b      	lsrs	r3, r3, #2
 8001e94:	33c0      	adds	r3, #192	@ 0xc0
 8001e96:	009b      	lsls	r3, r3, #2
 8001e98:	589b      	ldr	r3, [r3, r2]
 8001e9a:	1dfa      	adds	r2, r7, #7
 8001e9c:	7812      	ldrb	r2, [r2, #0]
 8001e9e:	0011      	movs	r1, r2
 8001ea0:	2203      	movs	r2, #3
 8001ea2:	400a      	ands	r2, r1
 8001ea4:	00d2      	lsls	r2, r2, #3
 8001ea6:	21ff      	movs	r1, #255	@ 0xff
 8001ea8:	4091      	lsls	r1, r2
 8001eaa:	000a      	movs	r2, r1
 8001eac:	43d2      	mvns	r2, r2
 8001eae:	401a      	ands	r2, r3
 8001eb0:	0011      	movs	r1, r2
       (((priority << (8U - __NVIC_PRIO_BITS)) & (uint32_t)0xFFUL) << _BIT_SHIFT(IRQn)));
 8001eb2:	683b      	ldr	r3, [r7, #0]
 8001eb4:	019b      	lsls	r3, r3, #6
 8001eb6:	22ff      	movs	r2, #255	@ 0xff
 8001eb8:	401a      	ands	r2, r3
 8001eba:	1dfb      	adds	r3, r7, #7
 8001ebc:	781b      	ldrb	r3, [r3, #0]
 8001ebe:	0018      	movs	r0, r3
 8001ec0:	2303      	movs	r3, #3
 8001ec2:	4003      	ands	r3, r0
 8001ec4:	00db      	lsls	r3, r3, #3
 8001ec6:	409a      	lsls	r2, r3
    NVIC->IP[_IP_IDX(IRQn)]  = ((uint32_t)(NVIC->IP[_IP_IDX(IRQn)]  & ~(0xFFUL << _BIT_SHIFT(IRQn))) |
 8001ec8:	481f      	ldr	r0, [pc, #124]	@ (8001f48 <__NVIC_SetPriority+0xd4>)
 8001eca:	1dfb      	adds	r3, r7, #7
 8001ecc:	781b      	ldrb	r3, [r3, #0]
 8001ece:	b25b      	sxtb	r3, r3
 8001ed0:	089b      	lsrs	r3, r3, #2
 8001ed2:	430a      	orrs	r2, r1
 8001ed4:	33c0      	adds	r3, #192	@ 0xc0
 8001ed6:	009b      	lsls	r3, r3, #2
 8001ed8:	501a      	str	r2, [r3, r0]
  else
  {
    SCB->SHP[_SHP_IDX(IRQn)] = ((uint32_t)(SCB->SHP[_SHP_IDX(IRQn)] & ~(0xFFUL << _BIT_SHIFT(IRQn))) |
       (((priority << (8U - __NVIC_PRIO_BITS)) & (uint32_t)0xFFUL) << _BIT_SHIFT(IRQn)));
  }
}
 8001eda:	e031      	b.n	8001f40 <__NVIC_SetPriority+0xcc>
    SCB->SHP[_SHP_IDX(IRQn)] = ((uint32_t)(SCB->SHP[_SHP_IDX(IRQn)] & ~(0xFFUL << _BIT_SHIFT(IRQn))) |
 8001edc:	4a1b      	ldr	r2, [pc, #108]	@ (8001f4c <__NVIC_SetPriority+0xd8>)
 8001ede:	1dfb      	adds	r3, r7, #7
 8001ee0:	781b      	ldrb	r3, [r3, #0]
 8001ee2:	0019      	movs	r1, r3
 8001ee4:	230f      	movs	r3, #15
 8001ee6:	400b      	ands	r3, r1
 8001ee8:	3b08      	subs	r3, #8
 8001eea:	089b      	lsrs	r3, r3, #2
 8001eec:	3306      	adds	r3, #6
 8001eee:	009b      	lsls	r3, r3, #2
 8001ef0:	18d3      	adds	r3, r2, r3
 8001ef2:	3304      	adds	r3, #4
 8001ef4:	681b      	ldr	r3, [r3, #0]
 8001ef6:	1dfa      	adds	r2, r7, #7
 8001ef8:	7812      	ldrb	r2, [r2, #0]
 8001efa:	0011      	movs	r1, r2
 8001efc:	2203      	movs	r2, #3
 8001efe:	400a      	ands	r2, r1
 8001f00:	00d2      	lsls	r2, r2, #3
 8001f02:	21ff      	movs	r1, #255	@ 0xff
 8001f04:	4091      	lsls	r1, r2
 8001f06:	000a      	movs	r2, r1
 8001f08:	43d2      	mvns	r2, r2
 8001f0a:	401a      	ands	r2, r3
 8001f0c:	0011      	movs	r1, r2
       (((priority << (8U - __NVIC_PRIO_BITS)) & (uint32_t)0xFFUL) << _BIT_SHIFT(IRQn)));
 8001f0e:	683b      	ldr	r3, [r7, #0]
 8001f10:	019b      	lsls	r3, r3, #6
 8001f12:	22ff      	movs	r2, #255	@ 0xff
 8001f14:	401a      	ands	r2, r3
 8001f16:	1dfb      	adds	r3, r7, #7
 8001f18:	781b      	ldrb	r3, [r3, #0]
 8001f1a:	0018      	movs	r0, r3
 8001f1c:	2303      	movs	r3, #3
 8001f1e:	4003      	ands	r3, r0
 8001f20:	00db      	lsls	r3, r3, #3
 8001f22:	409a      	lsls	r2, r3
    SCB->SHP[_SHP_IDX(IRQn)] = ((uint32_t)(SCB->SHP[_SHP_IDX(IRQn)] & ~(0xFFUL << _BIT_SHIFT(IRQn))) |
 8001f24:	4809      	ldr	r0, [pc, #36]	@ (8001f4c <__NVIC_SetPriority+0xd8>)
 8001f26:	1dfb      	adds	r3, r7, #7
 8001f28:	781b      	ldrb	r3, [r3, #0]
 8001f2a:	001c      	movs	r4, r3
 8001f2c:	230f      	movs	r3, #15
 8001f2e:	4023      	ands	r3, r4
 8001f30:	3b08      	subs	r3, #8
 8001f32:	089b      	lsrs	r3, r3, #2
 8001f34:	430a      	orrs	r2, r1
 8001f36:	3306      	adds	r3, #6
 8001f38:	009b      	lsls	r3, r3, #2
 8001f3a:	18c3      	adds	r3, r0, r3
 8001f3c:	3304      	adds	r3, #4
 8001f3e:	601a      	str	r2, [r3, #0]
}
 8001f40:	46c0      	nop			@ (mov r8, r8)
 8001f42:	46bd      	mov	sp, r7
 8001f44:	b003      	add	sp, #12
 8001f46:	bd90      	pop	{r4, r7, pc}
 8001f48:	e000e100 	.word	0xe000e100
 8001f4c:	e000ed00 	.word	0xe000ed00

08001f50 <SysTick_Config>:
  \note    When the variable <b>__Vendor_SysTickConfig</b> is set to 1, then the
           function <b>SysTick_Config</b> is not included. In this case, the file <b><i>device</i>.h</b>
           must contain a vendor-specific implementation of this function.
 */
__STATIC_INLINE uint32_t SysTick_Config(uint32_t ticks)
{
 8001f50:	b580      	push	{r7, lr}
 8001f52:	b082      	sub	sp, #8
 8001f54:	af00      	add	r7, sp, #0
 8001f56:	6078      	str	r0, [r7, #4]
  if ((ticks - 1UL) > SysTick_LOAD_RELOAD_Msk)
 8001f58:	687b      	ldr	r3, [r7, #4]
 8001f5a:	1e5a      	subs	r2, r3, #1
 8001f5c:	2380      	movs	r3, #128	@ 0x80
 8001f5e:	045b      	lsls	r3, r3, #17
 8001f60:	429a      	cmp	r2, r3
 8001f62:	d301      	bcc.n	8001f68 <SysTick_Config+0x18>
  {
    return (1UL);                                                   /* Reload value impossible */
 8001f64:	2301      	movs	r3, #1
 8001f66:	e010      	b.n	8001f8a <SysTick_Config+0x3a>
  }

  SysTick->LOAD  = (uint32_t)(ticks - 1UL);                         /* set reload register */
 8001f68:	4b0a      	ldr	r3, [pc, #40]	@ (8001f94 <SysTick_Config+0x44>)
 8001f6a:	687a      	ldr	r2, [r7, #4]
 8001f6c:	3a01      	subs	r2, #1
 8001f6e:	605a      	str	r2, [r3, #4]
  NVIC_SetPriority (SysTick_IRQn, (1UL << __NVIC_PRIO_BITS) - 1UL); /* set Priority for Systick Interrupt */
 8001f70:	2301      	movs	r3, #1
 8001f72:	425b      	negs	r3, r3
 8001f74:	2103      	movs	r1, #3
 8001f76:	0018      	movs	r0, r3
 8001f78:	f7ff ff7c 	bl	8001e74 <__NVIC_SetPriority>
  SysTick->VAL   = 0UL;                                             /* Load the SysTick Counter Value */
 8001f7c:	4b05      	ldr	r3, [pc, #20]	@ (8001f94 <SysTick_Config+0x44>)
 8001f7e:	2200      	movs	r2, #0
 8001f80:	609a      	str	r2, [r3, #8]
  SysTick->CTRL  = SysTick_CTRL_CLKSOURCE_Msk |
 8001f82:	4b04      	ldr	r3, [pc, #16]	@ (8001f94 <SysTick_Config+0x44>)
 8001f84:	2207      	movs	r2, #7
 8001f86:	601a      	str	r2, [r3, #0]
                   SysTick_CTRL_TICKINT_Msk   |
                   SysTick_CTRL_ENABLE_Msk;                         /* Enable SysTick IRQ and SysTick Timer */
  return (0UL);                                                     /* Function successful */
 8001f88:	2300      	movs	r3, #0
}
 8001f8a:	0018      	movs	r0, r3
 8001f8c:	46bd      	mov	sp, r7
 8001f8e:	b002      	add	sp, #8
 8001f90:	bd80      	pop	{r7, pc}
 8001f92:	46c0      	nop			@ (mov r8, r8)
 8001f94:	e000e010 	.word	0xe000e010

08001f98 <HAL_NVIC_SetPriority>:
  *         with stm32c0xx devices, this parameter is a dummy value and it is ignored, because
  *         no subpriority supported in Cortex M0+ based products.
  * @retval None
  */
void HAL_NVIC_SetPriority(IRQn_Type IRQn, uint32_t PreemptPriority, uint32_t SubPriority)
{
 8001f98:	b580      	push	{r7, lr}
 8001f9a:	b084      	sub	sp, #16
 8001f9c:	af00      	add	r7, sp, #0
 8001f9e:	60b9      	str	r1, [r7, #8]
 8001fa0:	607a      	str	r2, [r7, #4]
 8001fa2:	210f      	movs	r1, #15
 8001fa4:	187b      	adds	r3, r7, r1
 8001fa6:	1c02      	adds	r2, r0, #0
 8001fa8:	701a      	strb	r2, [r3, #0]
  /* Prevent unused argument(s) compilation warning */
  UNUSED(SubPriority);
  /* Check the parameters */
  assert_param(IS_NVIC_PREEMPTION_PRIORITY(PreemptPriority));
  NVIC_SetPriority(IRQn, PreemptPriority);
 8001faa:	68ba      	ldr	r2, [r7, #8]
 8001fac:	187b      	adds	r3, r7, r1
 8001fae:	781b      	ldrb	r3, [r3, #0]
 8001fb0:	b25b      	sxtb	r3, r3
 8001fb2:	0011      	movs	r1, r2
 8001fb4:	0018      	movs	r0, r3
 8001fb6:	f7ff ff5d 	bl	8001e74 <__NVIC_SetPriority>
}
 8001fba:	46c0      	nop			@ (mov r8, r8)
 8001fbc:	46bd      	mov	sp, r7
 8001fbe:	b004      	add	sp, #16
 8001fc0:	bd80      	pop	{r7, pc}

08001fc2 <HAL_NVIC_EnableIRQ>:
  *         (For the complete STM32 Devices IRQ Channels list, please refer to the appropriate
  *         CMSIS device file (stm32c0xxxx.h))
  * @retval None
  */
void HAL_NVIC_EnableIRQ(IRQn_Type IRQn)
{
 8001fc2:	b580      	push	{r7, lr}
 8001fc4:	b082      	sub	sp, #8
 8001fc6:	af00      	add	r7, sp, #0
 8001fc8:	0002      	movs	r2, r0
 8001fca:	1dfb      	adds	r3, r7, #7
 8001fcc:	701a      	strb	r2, [r3, #0]
  /* Check the parameters */
  assert_param(IS_NVIC_DEVICE_IRQ(IRQn));

  /* Enable interrupt */
  NVIC_EnableIRQ(IRQn);
 8001fce:	1dfb      	adds	r3, r7, #7
 8001fd0:	781b      	ldrb	r3, [r3, #0]
 8001fd2:	b25b      	sxtb	r3, r3
 8001fd4:	0018      	movs	r0, r3
 8001fd6:	f7ff ff33 	bl	8001e40 <__NVIC_EnableIRQ>
}
 8001fda:	46c0      	nop			@ (mov r8, r8)
 8001fdc:	46bd      	mov	sp, r7
 8001fde:	b002      	add	sp, #8
 8001fe0:	bd80      	pop	{r7, pc}

08001fe2 <HAL_SYSTICK_Config>:
  * @param  TicksNumb Specifies the ticks Number of ticks between two interrupts.
  * @retval status:  - 0  Function succeeded.
  *                  - 1  Function failed.
  */
uint32_t HAL_SYSTICK_Config(uint32_t TicksNumb)
{
 8001fe2:	b580      	push	{r7, lr}
 8001fe4:	b082      	sub	sp, #8
 8001fe6:	af00      	add	r7, sp, #0
 8001fe8:	6078      	str	r0, [r7, #4]
  return SysTick_Config(TicksNumb);
 8001fea:	687b      	ldr	r3, [r7, #4]
 8001fec:	0018      	movs	r0, r3
 8001fee:	f7ff ffaf 	bl	8001f50 <SysTick_Config>
 8001ff2:	0003      	movs	r3, r0
}
 8001ff4:	0018      	movs	r0, r3
 8001ff6:	46bd      	mov	sp, r7
 8001ff8:	b002      	add	sp, #8
 8001ffa:	bd80      	pop	{r7, pc}

08001ffc <FPROM_Read>:
/*
 * PUBLIC FUNCTIONS
 */

void FPROM_Read(uint32_t offset, void * data, uint32_t size)
{
 8001ffc:	b580      	push	{r7, lr}
 8001ffe:	b086      	sub	sp, #24
 8002000:	af00      	add	r7, sp, #0
 8002002:	60f8      	str	r0, [r7, #12]
 8002004:	60b9      	str	r1, [r7, #8]
 8002006:	607a      	str	r2, [r7, #4]
	uint32_t page_n = FLASH_GetPageCount() - 1;
 8002008:	f000 fa50 	bl	80024ac <FLASH_GetPageCount>
 800200c:	0003      	movs	r3, r0
 800200e:	3b01      	subs	r3, #1
 8002010:	617b      	str	r3, [r7, #20]
	const uint32_t * page = FLASH_GetPage(page_n);
 8002012:	697b      	ldr	r3, [r7, #20]
 8002014:	0018      	movs	r0, r3
 8002016:	f000 fa67 	bl	80024e8 <FLASH_GetPage>
 800201a:	0003      	movs	r3, r0
 800201c:	613b      	str	r3, [r7, #16]
	memcpy(data, (void*)page + offset, size);
 800201e:	693a      	ldr	r2, [r7, #16]
 8002020:	68fb      	ldr	r3, [r7, #12]
 8002022:	18d1      	adds	r1, r2, r3
 8002024:	687a      	ldr	r2, [r7, #4]
 8002026:	68bb      	ldr	r3, [r7, #8]
 8002028:	0018      	movs	r0, r3
 800202a:	f001 f83f 	bl	80030ac <memcpy>
}
 800202e:	46c0      	nop			@ (mov r8, r8)
 8002030:	46bd      	mov	sp, r7
 8002032:	b006      	add	sp, #24
 8002034:	bd80      	pop	{r7, pc}
	...

08002038 <FPROM_Write>:

void FPROM_Write(uint32_t offset, const void * data, uint32_t size)
{
 8002038:	b5b0      	push	{r4, r5, r7, lr}
 800203a:	b0c6      	sub	sp, #280	@ 0x118
 800203c:	af00      	add	r7, sp, #0
 800203e:	60f8      	str	r0, [r7, #12]
 8002040:	60b9      	str	r1, [r7, #8]
 8002042:	607a      	str	r2, [r7, #4]
	uint32_t page_n = FLASH_GetPageCount() - 1;
 8002044:	f000 fa32 	bl	80024ac <FLASH_GetPageCount>
 8002048:	0003      	movs	r3, r0
 800204a:	3b01      	subs	r3, #1
 800204c:	228a      	movs	r2, #138	@ 0x8a
 800204e:	0052      	lsls	r2, r2, #1
 8002050:	18b9      	adds	r1, r7, r2
 8002052:	600b      	str	r3, [r1, #0]
	const uint32_t * page = FLASH_GetPage(page_n);
 8002054:	18bb      	adds	r3, r7, r2
 8002056:	681b      	ldr	r3, [r3, #0]
 8002058:	0018      	movs	r0, r3
 800205a:	f000 fa45 	bl	80024e8 <FLASH_GetPage>
 800205e:	0003      	movs	r3, r0
 8002060:	2488      	movs	r4, #136	@ 0x88
 8002062:	0064      	lsls	r4, r4, #1
 8002064:	193a      	adds	r2, r7, r4
 8002066:	6013      	str	r3, [r2, #0]

	// Copy existing flash page
	uint8_t bfr[FPROM_PAGE_SIZE];
	memcpy(bfr, page, sizeof(bfr));
 8002068:	4b13      	ldr	r3, [pc, #76]	@ (80020b8 <FPROM_Write+0x80>)
 800206a:	228c      	movs	r2, #140	@ 0x8c
 800206c:	0052      	lsls	r2, r2, #1
 800206e:	189b      	adds	r3, r3, r2
 8002070:	19da      	adds	r2, r3, r7
 8002072:	193b      	adds	r3, r7, r4
 8002074:	681b      	ldr	r3, [r3, #0]
 8002076:	0010      	movs	r0, r2
 8002078:	0019      	movs	r1, r3
 800207a:	2380      	movs	r3, #128	@ 0x80
 800207c:	005b      	lsls	r3, r3, #1
 800207e:	001a      	movs	r2, r3
 8002080:	f001 f814 	bl	80030ac <memcpy>

	// Modify flash page
	memcpy(bfr + offset, data, size);
 8002084:	2510      	movs	r5, #16
 8002086:	197a      	adds	r2, r7, r5
 8002088:	68fb      	ldr	r3, [r7, #12]
 800208a:	18d3      	adds	r3, r2, r3
 800208c:	687a      	ldr	r2, [r7, #4]
 800208e:	68b9      	ldr	r1, [r7, #8]
 8002090:	0018      	movs	r0, r3
 8002092:	f001 f80b 	bl	80030ac <memcpy>

	// TODO: Skip page erase if erase not required.

	// Write page
	FLASH_Erase(page);
 8002096:	193b      	adds	r3, r7, r4
 8002098:	681b      	ldr	r3, [r3, #0]
 800209a:	0018      	movs	r0, r3
 800209c:	f000 fa32 	bl	8002504 <FLASH_Erase>
	FLASH_Write(page, (const uint32_t*)bfr, sizeof(bfr));
 80020a0:	2380      	movs	r3, #128	@ 0x80
 80020a2:	005a      	lsls	r2, r3, #1
 80020a4:	1979      	adds	r1, r7, r5
 80020a6:	193b      	adds	r3, r7, r4
 80020a8:	681b      	ldr	r3, [r3, #0]
 80020aa:	0018      	movs	r0, r3
 80020ac:	f000 fa6e 	bl	800258c <FLASH_Write>
}
 80020b0:	46c0      	nop			@ (mov r8, r8)
 80020b2:	46bd      	mov	sp, r7
 80020b4:	b046      	add	sp, #280	@ 0x118
 80020b6:	bdb0      	pop	{r4, r5, r7, pc}
 80020b8:	fffffef8 	.word	0xfffffef8

080020bc <ADC_Init>:
/*
 * PUBLIC FUNCTIONS
 */

void ADC_Init(void)
{
 80020bc:	b580      	push	{r7, lr}
 80020be:	b082      	sub	sp, #8
 80020c0:	af00      	add	r7, sp, #0
	CLK_EnableADCCLK();
 80020c2:	f000 f929 	bl	8002318 <CLK_EnableADCCLK>
	__HAL_RCC_ADC1_CLK_ENABLE();
 80020c6:	4b1d      	ldr	r3, [pc, #116]	@ (800213c <ADC_Init+0x80>)
 80020c8:	6c1a      	ldr	r2, [r3, #64]	@ 0x40
 80020ca:	4b1c      	ldr	r3, [pc, #112]	@ (800213c <ADC_Init+0x80>)
 80020cc:	2180      	movs	r1, #128	@ 0x80
 80020ce:	0349      	lsls	r1, r1, #13
 80020d0:	430a      	orrs	r2, r1
 80020d2:	641a      	str	r2, [r3, #64]	@ 0x40
 80020d4:	4b19      	ldr	r3, [pc, #100]	@ (800213c <ADC_Init+0x80>)
 80020d6:	6c1a      	ldr	r2, [r3, #64]	@ 0x40
 80020d8:	2380      	movs	r3, #128	@ 0x80
 80020da:	035b      	lsls	r3, r3, #13
 80020dc:	4013      	ands	r3, r2
 80020de:	607b      	str	r3, [r7, #4]
 80020e0:	687b      	ldr	r3, [r7, #4]
	MODIFY_REG(ADC_COMMON->CCR, ADC_CCR_LFMEN, __HAL_ADC_CCR_LOWFREQUENCY(DISABLE));
#endif

#ifdef ADC_CR_ADVREGEN
	// Enable the voltage regulator
	if (HAL_IS_BIT_CLR(ADCx->CR, ADC_CR_ADVREGEN))
 80020e2:	4b17      	ldr	r3, [pc, #92]	@ (8002140 <ADC_Init+0x84>)
 80020e4:	689a      	ldr	r2, [r3, #8]
 80020e6:	2380      	movs	r3, #128	@ 0x80
 80020e8:	055b      	lsls	r3, r3, #21
 80020ea:	4013      	ands	r3, r2
 80020ec:	d109      	bne.n	8002102 <ADC_Init+0x46>
	{
		ADCx->CR |= ADC_CR_ADVREGEN;
 80020ee:	4b14      	ldr	r3, [pc, #80]	@ (8002140 <ADC_Init+0x84>)
 80020f0:	689a      	ldr	r2, [r3, #8]
 80020f2:	4b13      	ldr	r3, [pc, #76]	@ (8002140 <ADC_Init+0x84>)
 80020f4:	2180      	movs	r1, #128	@ 0x80
 80020f6:	0549      	lsls	r1, r1, #21
 80020f8:	430a      	orrs	r2, r1
 80020fa:	609a      	str	r2, [r3, #8]
		// Wait for regulator stability.
		US_Delay(20);
 80020fc:	2014      	movs	r0, #20
 80020fe:	f000 ff9f 	bl	8003040 <US_Delay>
	}
#endif

	ADCx->CFGR1 = ADC_DATAALIGN_RIGHT
 8002102:	4b0f      	ldr	r3, [pc, #60]	@ (8002140 <ADC_Init+0x84>)
 8002104:	2200      	movs	r2, #0
 8002106:	60da      	str	r2, [r3, #12]
		| ADC_CFGR1_AUTOWAIT(DISABLE)
		| ADC_CFGR1_AUTOOFF(DISABLE)
		| ADC_OVR_DATA_PRESERVED
		| ADC_RESOLUTION_12B;

	ADCx->CFGR2 = 0;
 8002108:	4b0d      	ldr	r3, [pc, #52]	@ (8002140 <ADC_Init+0x84>)
 800210a:	2200      	movs	r2, #0
 800210c:	611a      	str	r2, [r3, #16]

	// Configure the default sampling rate
	MODIFY_REG(ADCx->SMPR, ADC_SMPR_SMPR, ADC_SMPR_DEFAULT);
 800210e:	4b0c      	ldr	r3, [pc, #48]	@ (8002140 <ADC_Init+0x84>)
 8002110:	695a      	ldr	r2, [r3, #20]
 8002112:	4b0b      	ldr	r3, [pc, #44]	@ (8002140 <ADC_Init+0x84>)
 8002114:	2107      	movs	r1, #7
 8002116:	430a      	orrs	r2, r1
 8002118:	615a      	str	r2, [r3, #20]

	ADC_Calibrate();
 800211a:	f000 f8a1 	bl	8002260 <ADC_Calibrate>
	__HAL_ADC_ENABLE(&gADC);
 800211e:	4b09      	ldr	r3, [pc, #36]	@ (8002144 <ADC_Init+0x88>)
 8002120:	681b      	ldr	r3, [r3, #0]
 8002122:	689a      	ldr	r2, [r3, #8]
 8002124:	4b07      	ldr	r3, [pc, #28]	@ (8002144 <ADC_Init+0x88>)
 8002126:	681b      	ldr	r3, [r3, #0]
 8002128:	2101      	movs	r1, #1
 800212a:	430a      	orrs	r2, r1
 800212c:	609a      	str	r2, [r3, #8]
	ADC_WaitForFlag(ADC_FLAG_RDY);
 800212e:	2001      	movs	r0, #1
 8002130:	f000 f882 	bl	8002238 <ADC_WaitForFlag>
}
 8002134:	46c0      	nop			@ (mov r8, r8)
 8002136:	46bd      	mov	sp, r7
 8002138:	b002      	add	sp, #8
 800213a:	bd80      	pop	{r7, pc}
 800213c:	40021000 	.word	0x40021000
 8002140:	40012400 	.word	0x40012400
 8002144:	20000004 	.word	0x20000004

08002148 <ADC_Read>:
	}
}
#endif

uint32_t ADC_Read(ADC_Channel_t channel)
{
 8002148:	b580      	push	{r7, lr}
 800214a:	b082      	sub	sp, #8
 800214c:	af00      	add	r7, sp, #0
 800214e:	6078      	str	r0, [r7, #4]
	__HAL_ADC_CLEAR_FLAG(&gADC, (ADC_FLAG_EOC | ADC_FLAG_EOS | ADC_FLAG_OVR));
 8002150:	4b0d      	ldr	r3, [pc, #52]	@ (8002188 <ADC_Read+0x40>)
 8002152:	681b      	ldr	r3, [r3, #0]
 8002154:	221c      	movs	r2, #28
 8002156:	601a      	str	r2, [r3, #0]

	ADCx->CHSELR = channel;
 8002158:	4b0c      	ldr	r3, [pc, #48]	@ (800218c <ADC_Read+0x44>)
 800215a:	687a      	ldr	r2, [r7, #4]
 800215c:	629a      	str	r2, [r3, #40]	@ 0x28

	// Put it back in single shot mode.
	MODIFY_REG( ADCx->CFGR1,
 800215e:	4b0b      	ldr	r3, [pc, #44]	@ (800218c <ADC_Read+0x44>)
 8002160:	68da      	ldr	r2, [r3, #12]
 8002162:	4b0a      	ldr	r3, [pc, #40]	@ (800218c <ADC_Read+0x44>)
 8002164:	490a      	ldr	r1, [pc, #40]	@ (8002190 <ADC_Read+0x48>)
 8002166:	400a      	ands	r2, r1
 8002168:	60da      	str	r2, [r3, #12]
				ADC_CFGR1_DMACFG | ADC_CFGR1_CONT | ADC_CFGR1_DMAEN,
				ADC_CFGR1_CONTINUOUS(DISABLE) | ADC_CFGR1_DMACONTREQ(DISABLE)
			);

	ADCx->CR |= ADC_CR_ADSTART;
 800216a:	4b08      	ldr	r3, [pc, #32]	@ (800218c <ADC_Read+0x44>)
 800216c:	689a      	ldr	r2, [r3, #8]
 800216e:	4b07      	ldr	r3, [pc, #28]	@ (800218c <ADC_Read+0x44>)
 8002170:	2104      	movs	r1, #4
 8002172:	430a      	orrs	r2, r1
 8002174:	609a      	str	r2, [r3, #8]

	ADC_WaitForFlag(ADC_FLAG_EOC);
 8002176:	2004      	movs	r0, #4
 8002178:	f000 f85e 	bl	8002238 <ADC_WaitForFlag>

	return ADCx->DR;
 800217c:	4b03      	ldr	r3, [pc, #12]	@ (800218c <ADC_Read+0x44>)
 800217e:	6c1b      	ldr	r3, [r3, #64]	@ 0x40
}
 8002180:	0018      	movs	r0, r3
 8002182:	46bd      	mov	sp, r7
 8002184:	b002      	add	sp, #8
 8002186:	bd80      	pop	{r7, pc}
 8002188:	20000004 	.word	0x20000004
 800218c:	40012400 	.word	0x40012400
 8002190:	ffffdffc 	.word	0xffffdffc

08002194 <ADC_ReadDieTemp>:
{
	return (ain * ADC_VREF) / ADC_MAX;
}

int32_t ADC_ReadDieTemp(void)
{
 8002194:	b580      	push	{r7, lr}
 8002196:	b082      	sub	sp, #8
 8002198:	af00      	add	r7, sp, #0
	ADC_COMMON->CCR |= ADC_CCR_TSEN;
 800219a:	4b1f      	ldr	r3, [pc, #124]	@ (8002218 <ADC_ReadDieTemp+0x84>)
 800219c:	681a      	ldr	r2, [r3, #0]
 800219e:	4b1e      	ldr	r3, [pc, #120]	@ (8002218 <ADC_ReadDieTemp+0x84>)
 80021a0:	2180      	movs	r1, #128	@ 0x80
 80021a2:	0409      	lsls	r1, r1, #16
 80021a4:	430a      	orrs	r2, r1
 80021a6:	601a      	str	r2, [r3, #0]
	US_Delay(10);
 80021a8:	200a      	movs	r0, #10
 80021aa:	f000 ff49 	bl	8003040 <US_Delay>
	int32_t ain = ADC_Read(ADC_Channel_Temp);
 80021ae:	2380      	movs	r3, #128	@ 0x80
 80021b0:	009b      	lsls	r3, r3, #2
 80021b2:	0018      	movs	r0, r3
 80021b4:	f7ff ffc8 	bl	8002148 <ADC_Read>
 80021b8:	0003      	movs	r3, r0
 80021ba:	607b      	str	r3, [r7, #4]
	ADC_COMMON->CCR &= ~ADC_CCR_TSEN;
 80021bc:	4b16      	ldr	r3, [pc, #88]	@ (8002218 <ADC_ReadDieTemp+0x84>)
 80021be:	681a      	ldr	r2, [r3, #0]
 80021c0:	4b15      	ldr	r3, [pc, #84]	@ (8002218 <ADC_ReadDieTemp+0x84>)
 80021c2:	4916      	ldr	r1, [pc, #88]	@ (800221c <ADC_ReadDieTemp+0x88>)
 80021c4:	400a      	ands	r2, r1
 80021c6:	601a      	str	r2, [r3, #0]

	// The temp sensor is not ratiometric, so the vref must be adjusted for.
	ain = ain * ADC_VREF / TS_CAL_VREF;
 80021c8:	687b      	ldr	r3, [r7, #4]
 80021ca:	4a15      	ldr	r2, [pc, #84]	@ (8002220 <ADC_ReadDieTemp+0x8c>)
 80021cc:	4353      	muls	r3, r2
 80021ce:	4915      	ldr	r1, [pc, #84]	@ (8002224 <ADC_ReadDieTemp+0x90>)
 80021d0:	0018      	movs	r0, r3
 80021d2:	f7fe f823 	bl	800021c <__divsi3>
 80021d6:	0003      	movs	r3, r0
 80021d8:	607b      	str	r3, [r7, #4]
	#if !defined(STM32C0)
	return ((ain - TS_CAL1_AIN) * (TS_CAL2_DEG - TS_CAL1_DEG) / (TS_CAL2_AIN - TS_CAL1_AIN)) + TS_CAL1_DEG;
	#else
	return ((ain - TS_CAL1_AIN)/((TS_AVG_SLOPE*4096)/3000) + TS_CAL1_DEG);
 80021da:	4b13      	ldr	r3, [pc, #76]	@ (8002228 <ADC_ReadDieTemp+0x94>)
 80021dc:	881b      	ldrh	r3, [r3, #0]
 80021de:	001a      	movs	r2, r3
 80021e0:	687b      	ldr	r3, [r7, #4]
 80021e2:	1a9b      	subs	r3, r3, r2
 80021e4:	0018      	movs	r0, r3
 80021e6:	f7fe ffc9 	bl	800117c <__aeabi_i2d>
 80021ea:	4a10      	ldr	r2, [pc, #64]	@ (800222c <ADC_ReadDieTemp+0x98>)
 80021ec:	4b10      	ldr	r3, [pc, #64]	@ (8002230 <ADC_ReadDieTemp+0x9c>)
 80021ee:	f7fe fc6f 	bl	8000ad0 <__aeabi_ddiv>
 80021f2:	0002      	movs	r2, r0
 80021f4:	000b      	movs	r3, r1
 80021f6:	0010      	movs	r0, r2
 80021f8:	0019      	movs	r1, r3
 80021fa:	2200      	movs	r2, #0
 80021fc:	4b0d      	ldr	r3, [pc, #52]	@ (8002234 <ADC_ReadDieTemp+0xa0>)
 80021fe:	f7fe f903 	bl	8000408 <__aeabi_dadd>
 8002202:	0002      	movs	r2, r0
 8002204:	000b      	movs	r3, r1
 8002206:	0010      	movs	r0, r2
 8002208:	0019      	movs	r1, r3
 800220a:	f7fe ff7b 	bl	8001104 <__aeabi_d2iz>
 800220e:	0003      	movs	r3, r0
	#endif
}
 8002210:	0018      	movs	r0, r3
 8002212:	46bd      	mov	sp, r7
 8002214:	b002      	add	sp, #8
 8002216:	bd80      	pop	{r7, pc}
 8002218:	40012708 	.word	0x40012708
 800221c:	ff7fffff 	.word	0xff7fffff
 8002220:	00000ce4 	.word	0x00000ce4
 8002224:	00000bb8 	.word	0x00000bb8
 8002228:	1fff7568 	.word	0x1fff7568
 800222c:	8b0ba8f2 	.word	0x8b0ba8f2
 8002230:	400ba264 	.word	0x400ba264
 8002234:	403e0000 	.word	0x403e0000

08002238 <ADC_WaitForFlag>:
		while(ADCx->CR & ADC_CR_ADSTART);
	}
}

static void ADC_WaitForFlag(uint32_t flag)
{
 8002238:	b580      	push	{r7, lr}
 800223a:	b082      	sub	sp, #8
 800223c:	af00      	add	r7, sp, #0
 800223e:	6078      	str	r0, [r7, #4]
	while (!__HAL_ADC_GET_FLAG(&gADC, flag));
 8002240:	46c0      	nop			@ (mov r8, r8)
 8002242:	4b06      	ldr	r3, [pc, #24]	@ (800225c <ADC_WaitForFlag+0x24>)
 8002244:	681b      	ldr	r3, [r3, #0]
 8002246:	681b      	ldr	r3, [r3, #0]
 8002248:	687a      	ldr	r2, [r7, #4]
 800224a:	4013      	ands	r3, r2
 800224c:	687a      	ldr	r2, [r7, #4]
 800224e:	429a      	cmp	r2, r3
 8002250:	d1f7      	bne.n	8002242 <ADC_WaitForFlag+0xa>
}
 8002252:	46c0      	nop			@ (mov r8, r8)
 8002254:	46c0      	nop			@ (mov r8, r8)
 8002256:	46bd      	mov	sp, r7
 8002258:	b002      	add	sp, #8
 800225a:	bd80      	pop	{r7, pc}
 800225c:	20000004 	.word	0x20000004

08002260 <ADC_Calibrate>:

static void ADC_Calibrate(void)
{
 8002260:	b580      	push	{r7, lr}
 8002262:	af00      	add	r7, sp, #0
	// Note, ADC must be disabled for this to occurr
	ADCx->CR |= ADC_CR_ADCAL;
 8002264:	4b07      	ldr	r3, [pc, #28]	@ (8002284 <ADC_Calibrate+0x24>)
 8002266:	689a      	ldr	r2, [r3, #8]
 8002268:	4b06      	ldr	r3, [pc, #24]	@ (8002284 <ADC_Calibrate+0x24>)
 800226a:	2180      	movs	r1, #128	@ 0x80
 800226c:	0609      	lsls	r1, r1, #24
 800226e:	430a      	orrs	r2, r1
 8002270:	609a      	str	r2, [r3, #8]
	while(ADCx->CR & ADC_CR_ADCAL);
 8002272:	46c0      	nop			@ (mov r8, r8)
 8002274:	4b03      	ldr	r3, [pc, #12]	@ (8002284 <ADC_Calibrate+0x24>)
 8002276:	689b      	ldr	r3, [r3, #8]
 8002278:	2b00      	cmp	r3, #0
 800227a:	dbfb      	blt.n	8002274 <ADC_Calibrate+0x14>
}
 800227c:	46c0      	nop			@ (mov r8, r8)
 800227e:	46c0      	nop			@ (mov r8, r8)
 8002280:	46bd      	mov	sp, r7
 8002282:	bd80      	pop	{r7, pc}
 8002284:	40012400 	.word	0x40012400

08002288 <CLK_InitSYSCLK>:
/*
 * PUBLIC FUNCTIONS
 */

void CLK_InitSYSCLK(void)
{
 8002288:	b580      	push	{r7, lr}
 800228a:	af00      	add	r7, sp, #0
	__HAL_FLASH_SET_LATENCY(FLASH_LATENCY);
 800228c:	4b1d      	ldr	r3, [pc, #116]	@ (8002304 <CLK_InitSYSCLK+0x7c>)
 800228e:	681b      	ldr	r3, [r3, #0]
 8002290:	2207      	movs	r2, #7
 8002292:	4393      	bics	r3, r2
 8002294:	001a      	movs	r2, r3
 8002296:	4b1b      	ldr	r3, [pc, #108]	@ (8002304 <CLK_InitSYSCLK+0x7c>)
 8002298:	2101      	movs	r1, #1
 800229a:	430a      	orrs	r2, r1
 800229c:	601a      	str	r2, [r3, #0]
	__HAL_RCC_HSE_CONFIG(RCC_HSE_ON);
#endif
	while(__HAL_RCC_GET_FLAG(RCC_FLAG_HSERDY) == 0U);
#endif
#ifdef CLK_USE_HSI
	__HAL_RCC_HSI_CALIBRATIONVALUE_ADJUST(RCC_HSICALIBRATION_DEFAULT);
 800229e:	4b1a      	ldr	r3, [pc, #104]	@ (8002308 <CLK_InitSYSCLK+0x80>)
 80022a0:	685b      	ldr	r3, [r3, #4]
 80022a2:	4a1a      	ldr	r2, [pc, #104]	@ (800230c <CLK_InitSYSCLK+0x84>)
 80022a4:	401a      	ands	r2, r3
 80022a6:	4b18      	ldr	r3, [pc, #96]	@ (8002308 <CLK_InitSYSCLK+0x80>)
 80022a8:	2180      	movs	r1, #128	@ 0x80
 80022aa:	01c9      	lsls	r1, r1, #7
 80022ac:	430a      	orrs	r2, r1
 80022ae:	605a      	str	r2, [r3, #4]
#if defined(STM32C0)
	__HAL_RCC_HSI_CONFIG(RCC_HSI_DIV1);
 80022b0:	4b15      	ldr	r3, [pc, #84]	@ (8002308 <CLK_InitSYSCLK+0x80>)
 80022b2:	681a      	ldr	r2, [r3, #0]
 80022b4:	4b14      	ldr	r3, [pc, #80]	@ (8002308 <CLK_InitSYSCLK+0x80>)
 80022b6:	4916      	ldr	r1, [pc, #88]	@ (8002310 <CLK_InitSYSCLK+0x88>)
 80022b8:	400a      	ands	r2, r1
 80022ba:	601a      	str	r2, [r3, #0]
#endif
	__HAL_RCC_HSI_ENABLE();
 80022bc:	4b12      	ldr	r3, [pc, #72]	@ (8002308 <CLK_InitSYSCLK+0x80>)
 80022be:	681a      	ldr	r2, [r3, #0]
 80022c0:	4b11      	ldr	r3, [pc, #68]	@ (8002308 <CLK_InitSYSCLK+0x80>)
 80022c2:	2180      	movs	r1, #128	@ 0x80
 80022c4:	0049      	lsls	r1, r1, #1
 80022c6:	430a      	orrs	r2, r1
 80022c8:	601a      	str	r2, [r3, #0]
	while(__HAL_RCC_GET_FLAG(RCC_FLAG_HSIRDY) == 0U);
 80022ca:	46c0      	nop			@ (mov r8, r8)
 80022cc:	4b0e      	ldr	r3, [pc, #56]	@ (8002308 <CLK_InitSYSCLK+0x80>)
 80022ce:	681a      	ldr	r2, [r3, #0]
 80022d0:	2380      	movs	r3, #128	@ 0x80
 80022d2:	00db      	lsls	r3, r3, #3
 80022d4:	4013      	ands	r3, r2
 80022d6:	d0f9      	beq.n	80022cc <CLK_InitSYSCLK+0x44>
	 * CONFIGURE CLOCKS
	 * Select the sources and dividers for internal clocks
	 */

	// Configure AHBCLK divider
	MODIFY_REG(RCC->CFGR, RCC_CFGR_HPRE, RCC_SYSCLK_DIV1);
 80022d8:	4b0b      	ldr	r3, [pc, #44]	@ (8002308 <CLK_InitSYSCLK+0x80>)
 80022da:	689a      	ldr	r2, [r3, #8]
 80022dc:	4b0a      	ldr	r3, [pc, #40]	@ (8002308 <CLK_InitSYSCLK+0x80>)
 80022de:	490d      	ldr	r1, [pc, #52]	@ (8002314 <CLK_InitSYSCLK+0x8c>)
 80022e0:	400a      	ands	r2, r1
 80022e2:	609a      	str	r2, [r3, #8]

	// Apply SYSCLK source
	__HAL_RCC_SYSCLK_CONFIG(CLK_SYSCLK_SRC);
 80022e4:	4b08      	ldr	r3, [pc, #32]	@ (8002308 <CLK_InitSYSCLK+0x80>)
 80022e6:	689a      	ldr	r2, [r3, #8]
 80022e8:	4b07      	ldr	r3, [pc, #28]	@ (8002308 <CLK_InitSYSCLK+0x80>)
 80022ea:	2107      	movs	r1, #7
 80022ec:	438a      	bics	r2, r1
 80022ee:	609a      	str	r2, [r3, #8]
#if ( defined(RCC_SYSCLKSOURCE_MSI) && CLK_SYSCLK_SRC == RCC_SYSCLKSOURCE_MSI)
	while (__HAL_RCC_GET_SYSCLK_SOURCE() != RCC_SYSCLKSOURCE_STATUS_MSI);
#elif (CLK_SYSCLK_SRC == RCC_SYSCLKSOURCE_HSI)
	while (__HAL_RCC_GET_SYSCLK_SOURCE() != RCC_SYSCLKSOURCE_STATUS_HSI);
 80022f0:	46c0      	nop			@ (mov r8, r8)
 80022f2:	4b05      	ldr	r3, [pc, #20]	@ (8002308 <CLK_InitSYSCLK+0x80>)
 80022f4:	689b      	ldr	r3, [r3, #8]
 80022f6:	2238      	movs	r2, #56	@ 0x38
 80022f8:	4013      	ands	r3, r2
 80022fa:	d1fa      	bne.n	80022f2 <CLK_InitSYSCLK+0x6a>
	__HAL_RCC_HSI_DISABLE();
#endif
#if (defined(RCC_SYSCLKSOURCE_MSI) && !defined(CLK_USE_MSI))
	__HAL_RCC_MSI_DISABLE();
#endif
}
 80022fc:	46c0      	nop			@ (mov r8, r8)
 80022fe:	46c0      	nop			@ (mov r8, r8)
 8002300:	46bd      	mov	sp, r7
 8002302:	bd80      	pop	{r7, pc}
 8002304:	40022000 	.word	0x40022000
 8002308:	40021000 	.word	0x40021000
 800230c:	ffff80ff 	.word	0xffff80ff
 8002310:	ffffc7ff 	.word	0xffffc7ff
 8002314:	fffff0ff 	.word	0xfffff0ff

08002318 <CLK_EnableADCCLK>:
	__HAL_RCC_LSI_DISABLE();
#endif
}

void CLK_EnableADCCLK(void)
{
 8002318:	b580      	push	{r7, lr}
 800231a:	af00      	add	r7, sp, #0
#if defined(STM32WL)
	__HAL_RCC_ADC_CONFIG(RCC_ADCCLKSOURCE_HSI);
#endif


}
 800231c:	46c0      	nop			@ (mov r8, r8)
 800231e:	46bd      	mov	sp, r7
 8002320:	bd80      	pop	{r7, pc}

08002322 <GPIO_Deinit>:
{
 8002322:	b580      	push	{r7, lr}
 8002324:	b082      	sub	sp, #8
 8002326:	af00      	add	r7, sp, #0
 8002328:	6078      	str	r0, [r7, #4]
	GPIO_Init(pins, GPIO_Mode_Analog);
 800232a:	687b      	ldr	r3, [r7, #4]
 800232c:	2103      	movs	r1, #3
 800232e:	0018      	movs	r0, r3
 8002330:	f000 f9fc 	bl	800272c <GPIO_Init>
}
 8002334:	46c0      	nop			@ (mov r8, r8)
 8002336:	46bd      	mov	sp, r7
 8002338:	b002      	add	sp, #8
 800233a:	bd80      	pop	{r7, pc}

0800233c <CLK_GetHCLKFreq>:
/*
 * INLINE FUNCTION DEFINITIONS
 */

static inline uint32_t CLK_GetHCLKFreq(void)
{
 800233c:	b580      	push	{r7, lr}
 800233e:	af00      	add	r7, sp, #0
	return CLK_SYSCLK_FREQ;
 8002340:	4b01      	ldr	r3, [pc, #4]	@ (8002348 <CLK_GetHCLKFreq+0xc>)
}
 8002342:	0018      	movs	r0, r3
 8002344:	46bd      	mov	sp, r7
 8002346:	bd80      	pop	{r7, pc}
 8002348:	02dc6c00 	.word	0x02dc6c00

0800234c <CORE_Init>:
/*
 * PUBLIC FUNCTIONS
 */

void CORE_Init(void)
{
 800234c:	b580      	push	{r7, lr}
 800234e:	b082      	sub	sp, #8
 8002350:	af00      	add	r7, sp, #0
#elif defined(STM32WL)
	//__HAL_FLASH_PREFETCH_BUFFER_ENABLE();
	//__HAL_FLASH_INSTRUCTION_CACHE_ENABLE();
#endif
#if !defined(STM32WL)
	__HAL_RCC_SYSCFG_CLK_ENABLE();
 8002352:	4b12      	ldr	r3, [pc, #72]	@ (800239c <CORE_Init+0x50>)
 8002354:	6c1a      	ldr	r2, [r3, #64]	@ 0x40
 8002356:	4b11      	ldr	r3, [pc, #68]	@ (800239c <CORE_Init+0x50>)
 8002358:	2101      	movs	r1, #1
 800235a:	430a      	orrs	r2, r1
 800235c:	641a      	str	r2, [r3, #64]	@ 0x40
 800235e:	4b0f      	ldr	r3, [pc, #60]	@ (800239c <CORE_Init+0x50>)
 8002360:	6c1b      	ldr	r3, [r3, #64]	@ 0x40
 8002362:	2201      	movs	r2, #1
 8002364:	4013      	ands	r3, r2
 8002366:	607b      	str	r3, [r7, #4]
 8002368:	687b      	ldr	r3, [r7, #4]
	__HAL_RCC_PWR_CLK_ENABLE();
 800236a:	4b0c      	ldr	r3, [pc, #48]	@ (800239c <CORE_Init+0x50>)
 800236c:	6bda      	ldr	r2, [r3, #60]	@ 0x3c
 800236e:	4b0b      	ldr	r3, [pc, #44]	@ (800239c <CORE_Init+0x50>)
 8002370:	2180      	movs	r1, #128	@ 0x80
 8002372:	0549      	lsls	r1, r1, #21
 8002374:	430a      	orrs	r2, r1
 8002376:	63da      	str	r2, [r3, #60]	@ 0x3c
 8002378:	4b08      	ldr	r3, [pc, #32]	@ (800239c <CORE_Init+0x50>)
 800237a:	6bda      	ldr	r2, [r3, #60]	@ 0x3c
 800237c:	2380      	movs	r3, #128	@ 0x80
 800237e:	055b      	lsls	r3, r3, #21
 8002380:	4013      	ands	r3, r2
 8002382:	603b      	str	r3, [r7, #0]
 8002384:	683b      	ldr	r3, [r7, #0]
#if defined(DEBUG) && (defined(STM32WL))
	HAL_DBGMCU_EnableDBGSleepMode();
	HAL_DBGMCU_EnableDBGStopMode();
#endif

	CLK_InitSYSCLK();
 8002386:	f7ff ff7f 	bl	8002288 <CLK_InitSYSCLK>
	CORE_InitSysTick();
 800238a:	f000 f80f 	bl	80023ac <CORE_InitSysTick>
	CORE_InitGPIO();
 800238e:	f000 f825 	bl	80023dc <CORE_InitGPIO>
#ifdef	US_ENABLE
	US_Init();
#endif
}
 8002392:	46c0      	nop			@ (mov r8, r8)
 8002394:	46bd      	mov	sp, r7
 8002396:	b002      	add	sp, #8
 8002398:	bd80      	pop	{r7, pc}
 800239a:	46c0      	nop			@ (mov r8, r8)
 800239c:	40021000 	.word	0x40021000

080023a0 <CORE_Idle>:

void __attribute__ ((noinline)) CORE_Idle(void)
{
 80023a0:	b580      	push	{r7, lr}
 80023a2:	af00      	add	r7, sp, #0
	// The push and pop of this function protects r0 from being clobbered during interrupt.
	// I do not understand why this is not preserved by the IRQ's push/pop.
	// If this function is inlined - then the usually pushed registers can get clobbered when returning from WFI.

	// As long as systick is on, this will at least return each millisecond.
	__WFI();
 80023a4:	bf30      	wfi
}
 80023a6:	46c0      	nop			@ (mov r8, r8)
 80023a8:	46bd      	mov	sp, r7
 80023aa:	bd80      	pop	{r7, pc}

080023ac <CORE_InitSysTick>:
/*
 * PRIVATE FUNCTIONS
 */

void CORE_InitSysTick(void)
{
 80023ac:	b580      	push	{r7, lr}
 80023ae:	af00      	add	r7, sp, #0
	HAL_SYSTICK_Config(CLK_GetHCLKFreq() / CORE_SYSTICK_FREQ);
 80023b0:	f7ff ffc4 	bl	800233c <CLK_GetHCLKFreq>
 80023b4:	0002      	movs	r2, r0
 80023b6:	23fa      	movs	r3, #250	@ 0xfa
 80023b8:	0099      	lsls	r1, r3, #2
 80023ba:	0010      	movs	r0, r2
 80023bc:	f7fd fea4 	bl	8000108 <__udivsi3>
 80023c0:	0003      	movs	r3, r0
 80023c2:	0018      	movs	r0, r3
 80023c4:	f7ff fe0d 	bl	8001fe2 <HAL_SYSTICK_Config>
	HAL_NVIC_SetPriority(SysTick_IRQn, 0, 0);
 80023c8:	2301      	movs	r3, #1
 80023ca:	425b      	negs	r3, r3
 80023cc:	2200      	movs	r2, #0
 80023ce:	2100      	movs	r1, #0
 80023d0:	0018      	movs	r0, r3
 80023d2:	f7ff fde1 	bl	8001f98 <HAL_NVIC_SetPriority>
}
 80023d6:	46c0      	nop			@ (mov r8, r8)
 80023d8:	46bd      	mov	sp, r7
 80023da:	bd80      	pop	{r7, pc}

080023dc <CORE_InitGPIO>:

void CORE_InitGPIO(void)
{
 80023dc:	b580      	push	{r7, lr}
 80023de:	b084      	sub	sp, #16
 80023e0:	af00      	add	r7, sp, #0
	__HAL_RCC_GPIOA_CLK_ENABLE();
 80023e2:	4b22      	ldr	r3, [pc, #136]	@ (800246c <CORE_InitGPIO+0x90>)
 80023e4:	6b5a      	ldr	r2, [r3, #52]	@ 0x34
 80023e6:	4b21      	ldr	r3, [pc, #132]	@ (800246c <CORE_InitGPIO+0x90>)
 80023e8:	2101      	movs	r1, #1
 80023ea:	430a      	orrs	r2, r1
 80023ec:	635a      	str	r2, [r3, #52]	@ 0x34
 80023ee:	4b1f      	ldr	r3, [pc, #124]	@ (800246c <CORE_InitGPIO+0x90>)
 80023f0:	6b5b      	ldr	r3, [r3, #52]	@ 0x34
 80023f2:	2201      	movs	r2, #1
 80023f4:	4013      	ands	r3, r2
 80023f6:	60fb      	str	r3, [r7, #12]
 80023f8:	68fb      	ldr	r3, [r7, #12]
#ifdef DEBUG
	// SWCLK and SWDIO on PA13, PA14
	GPIO_Deinit(GPIO_Port_A | (GPIO_Pin_All & ~(GPIO_Pin_13 | GPIO_Pin_14)));
 80023fa:	4b1d      	ldr	r3, [pc, #116]	@ (8002470 <CORE_InitGPIO+0x94>)
 80023fc:	0018      	movs	r0, r3
 80023fe:	f7ff ff90 	bl	8002322 <GPIO_Deinit>
#else
	GPIO_Deinit(GPIO_Port_A | GPIO_Pin_All);
#endif

	__HAL_RCC_GPIOB_CLK_ENABLE();
 8002402:	4b1a      	ldr	r3, [pc, #104]	@ (800246c <CORE_InitGPIO+0x90>)
 8002404:	6b5a      	ldr	r2, [r3, #52]	@ 0x34
 8002406:	4b19      	ldr	r3, [pc, #100]	@ (800246c <CORE_InitGPIO+0x90>)
 8002408:	2102      	movs	r1, #2
 800240a:	430a      	orrs	r2, r1
 800240c:	635a      	str	r2, [r3, #52]	@ 0x34
 800240e:	4b17      	ldr	r3, [pc, #92]	@ (800246c <CORE_InitGPIO+0x90>)
 8002410:	6b5b      	ldr	r3, [r3, #52]	@ 0x34
 8002412:	2202      	movs	r2, #2
 8002414:	4013      	ands	r3, r2
 8002416:	60bb      	str	r3, [r7, #8]
 8002418:	68bb      	ldr	r3, [r7, #8]
	GPIO_Deinit(GPIO_Port_B | GPIO_Pin_All);
 800241a:	4b16      	ldr	r3, [pc, #88]	@ (8002474 <CORE_InitGPIO+0x98>)
 800241c:	0018      	movs	r0, r3
 800241e:	f7ff ff80 	bl	8002322 <GPIO_Deinit>

	__HAL_RCC_GPIOC_CLK_ENABLE();
 8002422:	4b12      	ldr	r3, [pc, #72]	@ (800246c <CORE_InitGPIO+0x90>)
 8002424:	6b5a      	ldr	r2, [r3, #52]	@ 0x34
 8002426:	4b11      	ldr	r3, [pc, #68]	@ (800246c <CORE_InitGPIO+0x90>)
 8002428:	2104      	movs	r1, #4
 800242a:	430a      	orrs	r2, r1
 800242c:	635a      	str	r2, [r3, #52]	@ 0x34
 800242e:	4b0f      	ldr	r3, [pc, #60]	@ (800246c <CORE_InitGPIO+0x90>)
 8002430:	6b5b      	ldr	r3, [r3, #52]	@ 0x34
 8002432:	2204      	movs	r2, #4
 8002434:	4013      	ands	r3, r2
 8002436:	607b      	str	r3, [r7, #4]
 8002438:	687b      	ldr	r3, [r7, #4]
	GPIO_Deinit(GPIO_Port_C | GPIO_Pin_All);
 800243a:	4b0f      	ldr	r3, [pc, #60]	@ (8002478 <CORE_InitGPIO+0x9c>)
 800243c:	0018      	movs	r0, r3
 800243e:	f7ff ff70 	bl	8002322 <GPIO_Deinit>

#if defined(GPIOD)
	__HAL_RCC_GPIOD_CLK_ENABLE();
 8002442:	4b0a      	ldr	r3, [pc, #40]	@ (800246c <CORE_InitGPIO+0x90>)
 8002444:	6b5a      	ldr	r2, [r3, #52]	@ 0x34
 8002446:	4b09      	ldr	r3, [pc, #36]	@ (800246c <CORE_InitGPIO+0x90>)
 8002448:	2108      	movs	r1, #8
 800244a:	430a      	orrs	r2, r1
 800244c:	635a      	str	r2, [r3, #52]	@ 0x34
 800244e:	4b07      	ldr	r3, [pc, #28]	@ (800246c <CORE_InitGPIO+0x90>)
 8002450:	6b5b      	ldr	r3, [r3, #52]	@ 0x34
 8002452:	2208      	movs	r2, #8
 8002454:	4013      	ands	r3, r2
 8002456:	603b      	str	r3, [r7, #0]
 8002458:	683b      	ldr	r3, [r7, #0]
	GPIO_Deinit(GPIO_Port_D | GPIO_Pin_All);
 800245a:	4b08      	ldr	r3, [pc, #32]	@ (800247c <CORE_InitGPIO+0xa0>)
 800245c:	0018      	movs	r0, r3
 800245e:	f7ff ff60 	bl	8002322 <GPIO_Deinit>
#endif
}
 8002462:	46c0      	nop			@ (mov r8, r8)
 8002464:	46bd      	mov	sp, r7
 8002466:	b004      	add	sp, #16
 8002468:	bd80      	pop	{r7, pc}
 800246a:	46c0      	nop			@ (mov r8, r8)
 800246c:	40021000 	.word	0x40021000
 8002470:	00009fff 	.word	0x00009fff
 8002474:	0001ffff 	.word	0x0001ffff
 8002478:	0002ffff 	.word	0x0002ffff
 800247c:	0003ffff 	.word	0x0003ffff

08002480 <SysTick_Handler>:
/*
 * INTERRUPT ROUTINES
 */

void SysTick_Handler(void)
{
 8002480:	b580      	push	{r7, lr}
 8002482:	af00      	add	r7, sp, #0
	gTicks += MS_PER_SYSTICK;
 8002484:	4b07      	ldr	r3, [pc, #28]	@ (80024a4 <SysTick_Handler+0x24>)
 8002486:	681b      	ldr	r3, [r3, #0]
 8002488:	1c5a      	adds	r2, r3, #1
 800248a:	4b06      	ldr	r3, [pc, #24]	@ (80024a4 <SysTick_Handler+0x24>)
 800248c:	601a      	str	r2, [r3, #0]

#ifdef CORE_USE_TICK_IRQ
	if (gTickCallback != NULL)
 800248e:	4b06      	ldr	r3, [pc, #24]	@ (80024a8 <SysTick_Handler+0x28>)
 8002490:	681b      	ldr	r3, [r3, #0]
 8002492:	2b00      	cmp	r3, #0
 8002494:	d002      	beq.n	800249c <SysTick_Handler+0x1c>
	{
		gTickCallback();
 8002496:	4b04      	ldr	r3, [pc, #16]	@ (80024a8 <SysTick_Handler+0x28>)
 8002498:	681b      	ldr	r3, [r3, #0]
 800249a:	4798      	blx	r3
	}
#endif
}
 800249c:	46c0      	nop			@ (mov r8, r8)
 800249e:	46bd      	mov	sp, r7
 80024a0:	bd80      	pop	{r7, pc}
 80024a2:	46c0      	nop			@ (mov r8, r8)
 80024a4:	20000188 	.word	0x20000188
 80024a8:	20000184 	.word	0x20000184

080024ac <FLASH_GetPageCount>:
/*
 * PUBLIC FUNCTIONS
 */

uint32_t FLASH_GetPageCount(void)
{
 80024ac:	b580      	push	{r7, lr}
 80024ae:	af00      	add	r7, sp, #0
	return FLASH_PAGE_COUNT();
 80024b0:	4b0b      	ldr	r3, [pc, #44]	@ (80024e0 <FLASH_GetPageCount+0x34>)
 80024b2:	881b      	ldrh	r3, [r3, #0]
 80024b4:	4a0b      	ldr	r2, [pc, #44]	@ (80024e4 <FLASH_GetPageCount+0x38>)
 80024b6:	4293      	cmp	r3, r2
 80024b8:	d00d      	beq.n	80024d6 <FLASH_GetPageCount+0x2a>
 80024ba:	4b09      	ldr	r3, [pc, #36]	@ (80024e0 <FLASH_GetPageCount+0x34>)
 80024bc:	881b      	ldrh	r3, [r3, #0]
 80024be:	2b00      	cmp	r3, #0
 80024c0:	d007      	beq.n	80024d2 <FLASH_GetPageCount+0x26>
 80024c2:	4b07      	ldr	r3, [pc, #28]	@ (80024e0 <FLASH_GetPageCount+0x34>)
 80024c4:	881b      	ldrh	r3, [r3, #0]
 80024c6:	029a      	lsls	r2, r3, #10
 80024c8:	23ff      	movs	r3, #255	@ 0xff
 80024ca:	029b      	lsls	r3, r3, #10
 80024cc:	4013      	ands	r3, r2
 80024ce:	0adb      	lsrs	r3, r3, #11
 80024d0:	e002      	b.n	80024d8 <FLASH_GetPageCount+0x2c>
 80024d2:	2310      	movs	r3, #16
 80024d4:	e000      	b.n	80024d8 <FLASH_GetPageCount+0x2c>
 80024d6:	2310      	movs	r3, #16
}
 80024d8:	0018      	movs	r0, r3
 80024da:	46bd      	mov	sp, r7
 80024dc:	bd80      	pop	{r7, pc}
 80024de:	46c0      	nop			@ (mov r8, r8)
 80024e0:	1fff75a0 	.word	0x1fff75a0
 80024e4:	0000ffff 	.word	0x0000ffff

080024e8 <FLASH_GetPage>:

const uint32_t * FLASH_GetPage(uint32_t page)
{
 80024e8:	b580      	push	{r7, lr}
 80024ea:	b082      	sub	sp, #8
 80024ec:	af00      	add	r7, sp, #0
 80024ee:	6078      	str	r0, [r7, #4]
	return (const uint32_t *)(FLASH_BASE + (FLASH_PAGE_SIZE * page));
 80024f0:	687b      	ldr	r3, [r7, #4]
 80024f2:	2280      	movs	r2, #128	@ 0x80
 80024f4:	0252      	lsls	r2, r2, #9
 80024f6:	4694      	mov	ip, r2
 80024f8:	4463      	add	r3, ip
 80024fa:	02db      	lsls	r3, r3, #11
}
 80024fc:	0018      	movs	r0, r3
 80024fe:	46bd      	mov	sp, r7
 8002500:	b002      	add	sp, #8
 8002502:	bd80      	pop	{r7, pc}

08002504 <FLASH_Erase>:

void FLASH_Erase(const uint32_t * address)
{
 8002504:	b580      	push	{r7, lr}
 8002506:	b084      	sub	sp, #16
 8002508:	af00      	add	r7, sp, #0
 800250a:	6078      	str	r0, [r7, #4]
	FLASH_Unlock();
 800250c:	f000 f880 	bl	8002610 <FLASH_Unlock>
	_FLASH_SET_CR(_FLASH_CR_ERASE);
 8002510:	4b1d      	ldr	r3, [pc, #116]	@ (8002588 <FLASH_Erase+0x84>)
 8002512:	695a      	ldr	r2, [r3, #20]
 8002514:	4b1c      	ldr	r3, [pc, #112]	@ (8002588 <FLASH_Erase+0x84>)
 8002516:	2102      	movs	r1, #2
 8002518:	430a      	orrs	r2, r1
 800251a:	615a      	str	r2, [r3, #20]
	*((uint32_t *)address) = 0;
#elif defined(STM32F0)
    FLASH->AR = (uint32_t)address;
    _FLASH_SET_CR(FLASH_CR_STRT);
#elif defined(STM32G0) || defined(STM32WL) || defined(STM32C0)
    uint32_t page_number = ((uint32_t)address - FLASH_BASE) / FLASH_PAGE_SIZE;
 800251c:	687b      	ldr	r3, [r7, #4]
 800251e:	22f8      	movs	r2, #248	@ 0xf8
 8002520:	0612      	lsls	r2, r2, #24
 8002522:	4694      	mov	ip, r2
 8002524:	4463      	add	r3, ip
 8002526:	0adb      	lsrs	r3, r3, #11
 8002528:	60fb      	str	r3, [r7, #12]
    MODIFY_REG(FLASH->CR, FLASH_CR_PNB, page_number << FLASH_CR_PNB_Pos);
 800252a:	4b17      	ldr	r3, [pc, #92]	@ (8002588 <FLASH_Erase+0x84>)
 800252c:	695b      	ldr	r3, [r3, #20]
 800252e:	2278      	movs	r2, #120	@ 0x78
 8002530:	4393      	bics	r3, r2
 8002532:	0019      	movs	r1, r3
 8002534:	68fb      	ldr	r3, [r7, #12]
 8002536:	00da      	lsls	r2, r3, #3
 8002538:	4b13      	ldr	r3, [pc, #76]	@ (8002588 <FLASH_Erase+0x84>)
 800253a:	430a      	orrs	r2, r1
 800253c:	615a      	str	r2, [r3, #20]
    _FLASH_SET_CR(FLASH_CR_STRT);
 800253e:	4b12      	ldr	r3, [pc, #72]	@ (8002588 <FLASH_Erase+0x84>)
 8002540:	695a      	ldr	r2, [r3, #20]
 8002542:	4b11      	ldr	r3, [pc, #68]	@ (8002588 <FLASH_Erase+0x84>)
 8002544:	2180      	movs	r1, #128	@ 0x80
 8002546:	0249      	lsls	r1, r1, #9
 8002548:	430a      	orrs	r2, r1
 800254a:	615a      	str	r2, [r3, #20]
#endif

    FLASH_WAIT_FOR_OPERATION();
 800254c:	4b0e      	ldr	r3, [pc, #56]	@ (8002588 <FLASH_Erase+0x84>)
 800254e:	691a      	ldr	r2, [r3, #16]
 8002550:	2380      	movs	r3, #128	@ 0x80
 8002552:	025b      	lsls	r3, r3, #9
 8002554:	401a      	ands	r2, r3
 8002556:	2380      	movs	r3, #128	@ 0x80
 8002558:	025b      	lsls	r3, r3, #9
 800255a:	429a      	cmp	r2, r3
 800255c:	d0f6      	beq.n	800254c <FLASH_Erase+0x48>
 800255e:	4b0a      	ldr	r3, [pc, #40]	@ (8002588 <FLASH_Erase+0x84>)
 8002560:	691b      	ldr	r3, [r3, #16]
 8002562:	2201      	movs	r2, #1
 8002564:	4013      	ands	r3, r2
 8002566:	2b01      	cmp	r3, #1
 8002568:	d102      	bne.n	8002570 <FLASH_Erase+0x6c>
 800256a:	4b07      	ldr	r3, [pc, #28]	@ (8002588 <FLASH_Erase+0x84>)
 800256c:	2201      	movs	r2, #1
 800256e:	611a      	str	r2, [r3, #16]
	_FLASH_CLR_CR(_FLASH_CR_ERASE);
 8002570:	4b05      	ldr	r3, [pc, #20]	@ (8002588 <FLASH_Erase+0x84>)
 8002572:	695a      	ldr	r2, [r3, #20]
 8002574:	4b04      	ldr	r3, [pc, #16]	@ (8002588 <FLASH_Erase+0x84>)
 8002576:	2102      	movs	r1, #2
 8002578:	438a      	bics	r2, r1
 800257a:	615a      	str	r2, [r3, #20]
	FLASH_Lock();
 800257c:	f000 f868 	bl	8002650 <FLASH_Lock>
}
 8002580:	46c0      	nop			@ (mov r8, r8)
 8002582:	46bd      	mov	sp, r7
 8002584:	b004      	add	sp, #16
 8002586:	bd80      	pop	{r7, pc}
 8002588:	40022000 	.word	0x40022000

0800258c <FLASH_Write>:

void FLASH_Write(const uint32_t * address, const uint32_t * data, uint32_t size)
{
 800258c:	b580      	push	{r7, lr}
 800258e:	b088      	sub	sp, #32
 8002590:	af00      	add	r7, sp, #0
 8002592:	60f8      	str	r0, [r7, #12]
 8002594:	60b9      	str	r1, [r7, #8]
 8002596:	607a      	str	r2, [r7, #4]
	uint32_t dest = (uint32_t)address;
 8002598:	68fb      	ldr	r3, [r7, #12]
 800259a:	61fb      	str	r3, [r7, #28]
	const void * data_head = data;
 800259c:	68bb      	ldr	r3, [r7, #8]
 800259e:	61bb      	str	r3, [r7, #24]
	const void * data_end = data_head + size;
 80025a0:	69ba      	ldr	r2, [r7, #24]
 80025a2:	687b      	ldr	r3, [r7, #4]
 80025a4:	18d3      	adds	r3, r2, r3
 80025a6:	617b      	str	r3, [r7, #20]

	FLASH_Unlock();
 80025a8:	f000 f832 	bl	8002610 <FLASH_Unlock>
		FLASH_WAIT_FOR_OPERATION();
	}
	_FLASH_CLR_CR(_FLASH_CR_PROG);

#elif defined(STM32G0) || defined(STM32WL) || defined(STM32C0)
	_FLASH_SET_CR(_FLASH_CR_PROG);
 80025ac:	4b17      	ldr	r3, [pc, #92]	@ (800260c <FLASH_Write+0x80>)
 80025ae:	695a      	ldr	r2, [r3, #20]
 80025b0:	4b16      	ldr	r3, [pc, #88]	@ (800260c <FLASH_Write+0x80>)
 80025b2:	2101      	movs	r1, #1
 80025b4:	430a      	orrs	r2, r1
 80025b6:	615a      	str	r2, [r3, #20]
	while (data_end - data_head >= (2 * sizeof(uint32_t)))
 80025b8:	e016      	b.n	80025e8 <FLASH_Write+0x5c>
	{
		*(__IO uint32_t *)dest = *(uint32_t*)data_head;
 80025ba:	69fb      	ldr	r3, [r7, #28]
 80025bc:	69ba      	ldr	r2, [r7, #24]
 80025be:	6812      	ldr	r2, [r2, #0]
 80025c0:	601a      	str	r2, [r3, #0]
		dest += sizeof(uint32_t);
 80025c2:	69fb      	ldr	r3, [r7, #28]
 80025c4:	3304      	adds	r3, #4
 80025c6:	61fb      	str	r3, [r7, #28]
		data_head += sizeof(uint32_t);
 80025c8:	69bb      	ldr	r3, [r7, #24]
 80025ca:	3304      	adds	r3, #4
 80025cc:	61bb      	str	r3, [r7, #24]
           so that all instructions following the ISB are fetched from cache or memory,
           after the instruction has been completed.
 */
__STATIC_FORCEINLINE void __ISB(void)
{
  __ASM volatile ("isb 0xF":::"memory");
 80025ce:	f3bf 8f6f 	isb	sy
}
 80025d2:	46c0      	nop			@ (mov r8, r8)

		__ISB();

		*(__IO uint32_t *)dest = *(uint32_t*)data_head;
 80025d4:	69fb      	ldr	r3, [r7, #28]
 80025d6:	69ba      	ldr	r2, [r7, #24]
 80025d8:	6812      	ldr	r2, [r2, #0]
 80025da:	601a      	str	r2, [r3, #0]
		dest += sizeof(uint32_t);
 80025dc:	69fb      	ldr	r3, [r7, #28]
 80025de:	3304      	adds	r3, #4
 80025e0:	61fb      	str	r3, [r7, #28]
		data_head += sizeof(uint32_t);
 80025e2:	69bb      	ldr	r3, [r7, #24]
 80025e4:	3304      	adds	r3, #4
 80025e6:	61bb      	str	r3, [r7, #24]
	while (data_end - data_head >= (2 * sizeof(uint32_t)))
 80025e8:	697a      	ldr	r2, [r7, #20]
 80025ea:	69bb      	ldr	r3, [r7, #24]
 80025ec:	1ad3      	subs	r3, r2, r3
 80025ee:	2b07      	cmp	r3, #7
 80025f0:	d8e3      	bhi.n	80025ba <FLASH_Write+0x2e>
	}
	_FLASH_CLR_CR(_FLASH_CR_PROG);
 80025f2:	4b06      	ldr	r3, [pc, #24]	@ (800260c <FLASH_Write+0x80>)
 80025f4:	695a      	ldr	r2, [r3, #20]
 80025f6:	4b05      	ldr	r3, [pc, #20]	@ (800260c <FLASH_Write+0x80>)
 80025f8:	2101      	movs	r1, #1
 80025fa:	438a      	bics	r2, r1
 80025fc:	615a      	str	r2, [r3, #20]

#endif

	FLASH_Lock();
 80025fe:	f000 f827 	bl	8002650 <FLASH_Lock>
}
 8002602:	46c0      	nop			@ (mov r8, r8)
 8002604:	46bd      	mov	sp, r7
 8002606:	b008      	add	sp, #32
 8002608:	bd80      	pop	{r7, pc}
 800260a:	46c0      	nop			@ (mov r8, r8)
 800260c:	40022000 	.word	0x40022000

08002610 <FLASH_Unlock>:
/*
 * PRIVATE FUNCTIONS
 */

static void FLASH_Unlock(void)
{
 8002610:	b580      	push	{r7, lr}
 8002612:	b084      	sub	sp, #16
 8002614:	af00      	add	r7, sp, #0
 */
__STATIC_FORCEINLINE uint32_t __get_PRIMASK(void)
{
  uint32_t result;

  __ASM volatile ("MRS %0, primask" : "=r" (result) );
 8002616:	f3ef 8310 	mrs	r3, PRIMASK
 800261a:	607b      	str	r3, [r7, #4]
  return(result);
 800261c:	687b      	ldr	r3, [r7, #4]
	// This sequence must not be interrupted.
	uint32_t primask_bit = __get_PRIMASK();
 800261e:	60fb      	str	r3, [r7, #12]
  __ASM volatile ("cpsid i" : : : "memory");
 8002620:	b672      	cpsid	i
}
 8002622:	46c0      	nop			@ (mov r8, r8)
	FLASH->PRGKEYR = FLASH_PRGKEY2;
#elif defined(STM32F0)
	FLASH->KEYR |= FLASH_KEY1;
	FLASH->KEYR |= FLASH_KEY2;
#elif defined(STM32G0)  || defined(STM32WL) || defined(STM32C0)
	FLASH->KEYR = FLASH_KEY1;
 8002624:	4b07      	ldr	r3, [pc, #28]	@ (8002644 <FLASH_Unlock+0x34>)
 8002626:	4a08      	ldr	r2, [pc, #32]	@ (8002648 <FLASH_Unlock+0x38>)
 8002628:	609a      	str	r2, [r3, #8]
	FLASH->KEYR = FLASH_KEY2;
 800262a:	4b06      	ldr	r3, [pc, #24]	@ (8002644 <FLASH_Unlock+0x34>)
 800262c:	4a07      	ldr	r2, [pc, #28]	@ (800264c <FLASH_Unlock+0x3c>)
 800262e:	609a      	str	r2, [r3, #8]
 8002630:	68fb      	ldr	r3, [r7, #12]
 8002632:	60bb      	str	r3, [r7, #8]
  \details Assigns the given value to the Priority Mask Register.
  \param [in]    priMask  Priority Mask
 */
__STATIC_FORCEINLINE void __set_PRIMASK(uint32_t priMask)
{
  __ASM volatile ("MSR primask, %0" : : "r" (priMask) : "memory");
 8002634:	68bb      	ldr	r3, [r7, #8]
 8002636:	f383 8810 	msr	PRIMASK, r3
}
 800263a:	46c0      	nop			@ (mov r8, r8)
#endif

	__set_PRIMASK(primask_bit);
}
 800263c:	46c0      	nop			@ (mov r8, r8)
 800263e:	46bd      	mov	sp, r7
 8002640:	b004      	add	sp, #16
 8002642:	bd80      	pop	{r7, pc}
 8002644:	40022000 	.word	0x40022000
 8002648:	45670123 	.word	0x45670123
 800264c:	cdef89ab 	.word	0xcdef89ab

08002650 <FLASH_Lock>:

static inline void FLASH_Lock(void)
{
 8002650:	b580      	push	{r7, lr}
 8002652:	af00      	add	r7, sp, #0
	_FLASH_SET_CR(_FLASH_CR_LOCK);
 8002654:	4b04      	ldr	r3, [pc, #16]	@ (8002668 <FLASH_Lock+0x18>)
 8002656:	695a      	ldr	r2, [r3, #20]
 8002658:	4b03      	ldr	r3, [pc, #12]	@ (8002668 <FLASH_Lock+0x18>)
 800265a:	2180      	movs	r1, #128	@ 0x80
 800265c:	0609      	lsls	r1, r1, #24
 800265e:	430a      	orrs	r2, r1
 8002660:	615a      	str	r2, [r3, #20]
}
 8002662:	46c0      	nop			@ (mov r8, r8)
 8002664:	46bd      	mov	sp, r7
 8002666:	bd80      	pop	{r7, pc}
 8002668:	40022000 	.word	0x40022000

0800266c <GPIO_Write>:
/*
 * PUBLIC FUNCTIONS
 */

void GPIO_Write(GPIO_Pin_t pins, GPIO_State_t state)
{
 800266c:	b580      	push	{r7, lr}
 800266e:	b082      	sub	sp, #8
 8002670:	af00      	add	r7, sp, #0
 8002672:	6078      	str	r0, [r7, #4]
 8002674:	000a      	movs	r2, r1
 8002676:	1cfb      	adds	r3, r7, #3
 8002678:	701a      	strb	r2, [r3, #0]
	if (state)
 800267a:	1cfb      	adds	r3, r7, #3
 800267c:	781b      	ldrb	r3, [r3, #0]
 800267e:	2b00      	cmp	r3, #0
 8002680:	d004      	beq.n	800268c <GPIO_Write+0x20>
	{
		GPIO_Set(pins);
 8002682:	687b      	ldr	r3, [r7, #4]
 8002684:	0018      	movs	r0, r3
 8002686:	f000 f8ca 	bl	800281e <GPIO_Set>
	}
	else
	{
		GPIO_Reset(pins);
	}
}
 800268a:	e003      	b.n	8002694 <GPIO_Write+0x28>
		GPIO_Reset(pins);
 800268c:	687b      	ldr	r3, [r7, #4]
 800268e:	0018      	movs	r0, r3
 8002690:	f000 f8d6 	bl	8002840 <GPIO_Reset>
}
 8002694:	46c0      	nop			@ (mov r8, r8)
 8002696:	46bd      	mov	sp, r7
 8002698:	b002      	add	sp, #8
 800269a:	bd80      	pop	{r7, pc}

0800269c <GPIO_EnableAlternate>:

void GPIO_EnableAlternate(GPIO_Pin_t pins, GPIO_Flag_t flags, uint32_t af)
{
 800269c:	b590      	push	{r4, r7, lr}
 800269e:	b085      	sub	sp, #20
 80026a0:	af00      	add	r7, sp, #0
 80026a2:	60f8      	str	r0, [r7, #12]
 80026a4:	607a      	str	r2, [r7, #4]
 80026a6:	240a      	movs	r4, #10
 80026a8:	193b      	adds	r3, r7, r4
 80026aa:	1c0a      	adds	r2, r1, #0
 80026ac:	801a      	strh	r2, [r3, #0]
	GPIO_ConfigAlternate(pins, af);
 80026ae:	687a      	ldr	r2, [r7, #4]
 80026b0:	68fb      	ldr	r3, [r7, #12]
 80026b2:	0011      	movs	r1, r2
 80026b4:	0018      	movs	r0, r3
 80026b6:	f000 f8fa 	bl	80028ae <GPIO_ConfigAlternate>
	GPIO_Init(pins, GPIO_Mode_Alternate | GPIO_Speed_High | flags);
 80026ba:	193b      	adds	r3, r7, r4
 80026bc:	881b      	ldrh	r3, [r3, #0]
 80026be:	4a06      	ldr	r2, [pc, #24]	@ (80026d8 <GPIO_EnableAlternate+0x3c>)
 80026c0:	4313      	orrs	r3, r2
 80026c2:	b29a      	uxth	r2, r3
 80026c4:	68fb      	ldr	r3, [r7, #12]
 80026c6:	0011      	movs	r1, r2
 80026c8:	0018      	movs	r0, r3
 80026ca:	f000 f82f 	bl	800272c <GPIO_Init>
}
 80026ce:	46c0      	nop			@ (mov r8, r8)
 80026d0:	46bd      	mov	sp, r7
 80026d2:	b005      	add	sp, #20
 80026d4:	bd90      	pop	{r4, r7, pc}
 80026d6:	46c0      	nop			@ (mov r8, r8)
 80026d8:	00000302 	.word	0x00000302

080026dc <GPIO_OnChange>:

#ifdef GPIO_USE_IRQS
void GPIO_OnChange(GPIO_Pin_t pin, GPIO_IT_Dir_t dir, VoidFunction_t callback)
{
 80026dc:	b590      	push	{r4, r7, lr}
 80026de:	b087      	sub	sp, #28
 80026e0:	af00      	add	r7, sp, #0
 80026e2:	60f8      	str	r0, [r7, #12]
 80026e4:	607a      	str	r2, [r7, #4]
 80026e6:	240b      	movs	r4, #11
 80026e8:	193b      	adds	r3, r7, r4
 80026ea:	1c0a      	adds	r2, r1, #0
 80026ec:	701a      	strb	r2, [r3, #0]
	int n = FIRST_BIT_INDEX(pin);
 80026ee:	68fb      	ldr	r3, [r7, #12]
 80026f0:	0018      	movs	r0, r3
 80026f2:	f7fd fe7f 	bl	80003f4 <__ffssi2>
 80026f6:	0003      	movs	r3, r0
 80026f8:	3b01      	subs	r3, #1
 80026fa:	617b      	str	r3, [r7, #20]

	gCallback[n] = callback;
 80026fc:	4b0a      	ldr	r3, [pc, #40]	@ (8002728 <GPIO_OnChange+0x4c>)
 80026fe:	697a      	ldr	r2, [r7, #20]
 8002700:	0092      	lsls	r2, r2, #2
 8002702:	6879      	ldr	r1, [r7, #4]
 8002704:	50d1      	str	r1, [r2, r3]

	GPIO_ConfigInterrupt(pin >> 16, n, dir);
 8002706:	68fb      	ldr	r3, [r7, #12]
 8002708:	0c1b      	lsrs	r3, r3, #16
 800270a:	0018      	movs	r0, r3
 800270c:	193b      	adds	r3, r7, r4
 800270e:	781a      	ldrb	r2, [r3, #0]
 8002710:	697b      	ldr	r3, [r7, #20]
 8002712:	0019      	movs	r1, r3
 8002714:	f000 f90c 	bl	8002930 <GPIO_ConfigInterrupt>

	EXTIx_EnableIRQn(n);
 8002718:	697b      	ldr	r3, [r7, #20]
 800271a:	0018      	movs	r0, r3
 800271c:	f000 f9ea 	bl	8002af4 <EXTIx_EnableIRQn>
}
 8002720:	46c0      	nop			@ (mov r8, r8)
 8002722:	46bd      	mov	sp, r7
 8002724:	b007      	add	sp, #28
 8002726:	bd90      	pop	{r4, r7, pc}
 8002728:	2000018c 	.word	0x2000018c

0800272c <GPIO_Init>:
#endif //GPIO_USE_IRQS

void GPIO_Init(GPIO_Pin_t pins, GPIO_Flag_t mode)
{
 800272c:	b580      	push	{r7, lr}
 800272e:	b088      	sub	sp, #32
 8002730:	af00      	add	r7, sp, #0
 8002732:	6078      	str	r0, [r7, #4]
 8002734:	000a      	movs	r2, r1
 8002736:	1cbb      	adds	r3, r7, #2
 8002738:	801a      	strh	r2, [r3, #0]
	GPIO_t * gpio = GPIO_GetPort(pins);
 800273a:	687b      	ldr	r3, [r7, #4]
 800273c:	0018      	movs	r0, r3
 800273e:	f000 f8a5 	bl	800288c <GPIO_GetPort>
 8002742:	0003      	movs	r3, r0
 8002744:	61fb      	str	r3, [r7, #28]
	pins &= GPIO_Pin_All;
 8002746:	687b      	ldr	r3, [r7, #4]
 8002748:	041b      	lsls	r3, r3, #16
 800274a:	0c1b      	lsrs	r3, r3, #16
 800274c:	607b      	str	r3, [r7, #4]
	uint32_t pinmask = GPIO_SWARBitDouble(pins);
 800274e:	687b      	ldr	r3, [r7, #4]
 8002750:	0018      	movs	r0, r3
 8002752:	f000 f963 	bl	8002a1c <GPIO_SWARBitDouble>
 8002756:	0003      	movs	r3, r0
 8002758:	61bb      	str	r3, [r7, #24]

	GPIO_Mode_t dir = mode & GPIO_Mode_MASK;
 800275a:	1cbb      	adds	r3, r7, #2
 800275c:	881b      	ldrh	r3, [r3, #0]
 800275e:	b2da      	uxtb	r2, r3
 8002760:	2017      	movs	r0, #23
 8002762:	183b      	adds	r3, r7, r0
 8002764:	2103      	movs	r1, #3
 8002766:	400a      	ands	r2, r1
 8002768:	701a      	strb	r2, [r3, #0]

	if (dir == GPIO_Mode_Alternate || dir == GPIO_Mode_Output)
 800276a:	183b      	adds	r3, r7, r0
 800276c:	781b      	ldrb	r3, [r3, #0]
 800276e:	2b02      	cmp	r3, #2
 8002770:	d003      	beq.n	800277a <GPIO_Init+0x4e>
 8002772:	183b      	adds	r3, r7, r0
 8002774:	781b      	ldrb	r3, [r3, #0]
 8002776:	2b01      	cmp	r3, #1
 8002778:	d126      	bne.n	80027c8 <GPIO_Init+0x9c>
	{
		uint32_t speed = (mode & GPIO_Speed_MASK) >> GPIOCFG_SPEED_POS;
 800277a:	1cbb      	adds	r3, r7, #2
 800277c:	881b      	ldrh	r3, [r3, #0]
 800277e:	121b      	asrs	r3, r3, #8
 8002780:	001a      	movs	r2, r3
 8002782:	2303      	movs	r3, #3
 8002784:	4013      	ands	r3, r2
 8002786:	613b      	str	r3, [r7, #16]
		MODIFY_REG( gpio->OSPEEDR, pinmask * GPIO_OSPEEDER_OSPEED0, pinmask * speed );
 8002788:	69fb      	ldr	r3, [r7, #28]
 800278a:	6899      	ldr	r1, [r3, #8]
 800278c:	69ba      	ldr	r2, [r7, #24]
 800278e:	0013      	movs	r3, r2
 8002790:	005b      	lsls	r3, r3, #1
 8002792:	189b      	adds	r3, r3, r2
 8002794:	43db      	mvns	r3, r3
 8002796:	400b      	ands	r3, r1
 8002798:	001a      	movs	r2, r3
 800279a:	69bb      	ldr	r3, [r7, #24]
 800279c:	6939      	ldr	r1, [r7, #16]
 800279e:	434b      	muls	r3, r1
 80027a0:	431a      	orrs	r2, r3
 80027a2:	69fb      	ldr	r3, [r7, #28]
 80027a4:	609a      	str	r2, [r3, #8]
		MODIFY_REG( gpio->OTYPER, pins, (mode & GPIO_Flag_OpenDrain) ? pins : 0 );
 80027a6:	69fb      	ldr	r3, [r7, #28]
 80027a8:	685b      	ldr	r3, [r3, #4]
 80027aa:	687a      	ldr	r2, [r7, #4]
 80027ac:	43d2      	mvns	r2, r2
 80027ae:	401a      	ands	r2, r3
 80027b0:	1cbb      	adds	r3, r7, #2
 80027b2:	8819      	ldrh	r1, [r3, #0]
 80027b4:	2380      	movs	r3, #128	@ 0x80
 80027b6:	015b      	lsls	r3, r3, #5
 80027b8:	400b      	ands	r3, r1
 80027ba:	d001      	beq.n	80027c0 <GPIO_Init+0x94>
 80027bc:	687b      	ldr	r3, [r7, #4]
 80027be:	e000      	b.n	80027c2 <GPIO_Init+0x96>
 80027c0:	2300      	movs	r3, #0
 80027c2:	431a      	orrs	r2, r3
 80027c4:	69fb      	ldr	r3, [r7, #28]
 80027c6:	605a      	str	r2, [r3, #4]
	}

	MODIFY_REG( gpio->MODER, pinmask * GPIO_MODER_MODE0, pinmask * dir);
 80027c8:	69fb      	ldr	r3, [r7, #28]
 80027ca:	6819      	ldr	r1, [r3, #0]
 80027cc:	69ba      	ldr	r2, [r7, #24]
 80027ce:	0013      	movs	r3, r2
 80027d0:	005b      	lsls	r3, r3, #1
 80027d2:	189b      	adds	r3, r3, r2
 80027d4:	43db      	mvns	r3, r3
 80027d6:	400b      	ands	r3, r1
 80027d8:	001a      	movs	r2, r3
 80027da:	2317      	movs	r3, #23
 80027dc:	18fb      	adds	r3, r7, r3
 80027de:	781b      	ldrb	r3, [r3, #0]
 80027e0:	69b9      	ldr	r1, [r7, #24]
 80027e2:	434b      	muls	r3, r1
 80027e4:	431a      	orrs	r2, r3
 80027e6:	69fb      	ldr	r3, [r7, #28]
 80027e8:	601a      	str	r2, [r3, #0]
	uint32_t pull = (mode & GPIO_Pull_MASK) >> GPIOCFG_PULL_POS;
 80027ea:	1cbb      	adds	r3, r7, #2
 80027ec:	881b      	ldrh	r3, [r3, #0]
 80027ee:	111b      	asrs	r3, r3, #4
 80027f0:	001a      	movs	r2, r3
 80027f2:	2303      	movs	r3, #3
 80027f4:	4013      	ands	r3, r2
 80027f6:	60fb      	str	r3, [r7, #12]
	MODIFY_REG( gpio->PUPDR, pinmask * GPIO_PUPDR_PUPD0, pinmask * pull);
 80027f8:	69fb      	ldr	r3, [r7, #28]
 80027fa:	68d9      	ldr	r1, [r3, #12]
 80027fc:	69ba      	ldr	r2, [r7, #24]
 80027fe:	0013      	movs	r3, r2
 8002800:	005b      	lsls	r3, r3, #1
 8002802:	189b      	adds	r3, r3, r2
 8002804:	43db      	mvns	r3, r3
 8002806:	400b      	ands	r3, r1
 8002808:	001a      	movs	r2, r3
 800280a:	69bb      	ldr	r3, [r7, #24]
 800280c:	68f9      	ldr	r1, [r7, #12]
 800280e:	434b      	muls	r3, r1
 8002810:	431a      	orrs	r2, r3
 8002812:	69fb      	ldr	r3, [r7, #28]
 8002814:	60da      	str	r2, [r3, #12]
}
 8002816:	46c0      	nop			@ (mov r8, r8)
 8002818:	46bd      	mov	sp, r7
 800281a:	b008      	add	sp, #32
 800281c:	bd80      	pop	{r7, pc}

0800281e <GPIO_Set>:

void GPIO_Set(GPIO_Pin_t pins)
{
 800281e:	b580      	push	{r7, lr}
 8002820:	b082      	sub	sp, #8
 8002822:	af00      	add	r7, sp, #0
 8002824:	6078      	str	r0, [r7, #4]
	GPIO_GetPort(pins)->BSRR = pins & GPIO_Pin_All;
 8002826:	687b      	ldr	r3, [r7, #4]
 8002828:	0018      	movs	r0, r3
 800282a:	f000 f82f 	bl	800288c <GPIO_GetPort>
 800282e:	0003      	movs	r3, r0
 8002830:	687a      	ldr	r2, [r7, #4]
 8002832:	0412      	lsls	r2, r2, #16
 8002834:	0c12      	lsrs	r2, r2, #16
 8002836:	619a      	str	r2, [r3, #24]
}
 8002838:	46c0      	nop			@ (mov r8, r8)
 800283a:	46bd      	mov	sp, r7
 800283c:	b002      	add	sp, #8
 800283e:	bd80      	pop	{r7, pc}

08002840 <GPIO_Reset>:

void GPIO_Reset(GPIO_Pin_t pins)
{
 8002840:	b580      	push	{r7, lr}
 8002842:	b082      	sub	sp, #8
 8002844:	af00      	add	r7, sp, #0
 8002846:	6078      	str	r0, [r7, #4]
	GPIO_GetPort(pins)->BRR = pins & GPIO_Pin_All;
 8002848:	687b      	ldr	r3, [r7, #4]
 800284a:	0018      	movs	r0, r3
 800284c:	f000 f81e 	bl	800288c <GPIO_GetPort>
 8002850:	0003      	movs	r3, r0
 8002852:	687a      	ldr	r2, [r7, #4]
 8002854:	0412      	lsls	r2, r2, #16
 8002856:	0c12      	lsrs	r2, r2, #16
 8002858:	629a      	str	r2, [r3, #40]	@ 0x28
}
 800285a:	46c0      	nop			@ (mov r8, r8)
 800285c:	46bd      	mov	sp, r7
 800285e:	b002      	add	sp, #8
 8002860:	bd80      	pop	{r7, pc}

08002862 <GPIO_Read>:

GPIO_State_t GPIO_Read(GPIO_Pin_t pins)
{
 8002862:	b580      	push	{r7, lr}
 8002864:	b082      	sub	sp, #8
 8002866:	af00      	add	r7, sp, #0
 8002868:	6078      	str	r0, [r7, #4]
	return (GPIO_GetPort(pins)->IDR & (pins & GPIO_Pin_All)) > 0;
 800286a:	687b      	ldr	r3, [r7, #4]
 800286c:	0018      	movs	r0, r3
 800286e:	f000 f80d 	bl	800288c <GPIO_GetPort>
 8002872:	0003      	movs	r3, r0
 8002874:	691b      	ldr	r3, [r3, #16]
 8002876:	687a      	ldr	r2, [r7, #4]
 8002878:	4013      	ands	r3, r2
 800287a:	041b      	lsls	r3, r3, #16
 800287c:	0c1b      	lsrs	r3, r3, #16
 800287e:	1e5a      	subs	r2, r3, #1
 8002880:	4193      	sbcs	r3, r2
 8002882:	b2db      	uxtb	r3, r3
}
 8002884:	0018      	movs	r0, r3
 8002886:	46bd      	mov	sp, r7
 8002888:	b002      	add	sp, #8
 800288a:	bd80      	pop	{r7, pc}

0800288c <GPIO_GetPort>:
/*
 * PRIVATE FUNCTIONS
 */

static inline GPIO_t * GPIO_GetPort(GPIO_Pin_t pins)
{
 800288c:	b580      	push	{r7, lr}
 800288e:	b084      	sub	sp, #16
 8002890:	af00      	add	r7, sp, #0
 8002892:	6078      	str	r0, [r7, #4]
	uint32_t index = pins >> 16;
 8002894:	687b      	ldr	r3, [r7, #4]
 8002896:	0c1b      	lsrs	r3, r3, #16
 8002898:	60fb      	str	r3, [r7, #12]
	return (GPIO_t*)(GPIOA_BASE + (index * (GPIOB_BASE - GPIOA_BASE)));
 800289a:	68fb      	ldr	r3, [r7, #12]
 800289c:	22a0      	movs	r2, #160	@ 0xa0
 800289e:	0352      	lsls	r2, r2, #13
 80028a0:	4694      	mov	ip, r2
 80028a2:	4463      	add	r3, ip
 80028a4:	029b      	lsls	r3, r3, #10
}
 80028a6:	0018      	movs	r0, r3
 80028a8:	46bd      	mov	sp, r7
 80028aa:	b004      	add	sp, #16
 80028ac:	bd80      	pop	{r7, pc}

080028ae <GPIO_ConfigAlternate>:

static void GPIO_ConfigAlternate(GPIO_Pin_t pins, uint32_t af)
{
 80028ae:	b580      	push	{r7, lr}
 80028b0:	b086      	sub	sp, #24
 80028b2:	af00      	add	r7, sp, #0
 80028b4:	6078      	str	r0, [r7, #4]
 80028b6:	6039      	str	r1, [r7, #0]
	GPIO_t * gpio = GPIO_GetPort(pins);
 80028b8:	687b      	ldr	r3, [r7, #4]
 80028ba:	0018      	movs	r0, r3
 80028bc:	f7ff ffe6 	bl	800288c <GPIO_GetPort>
 80028c0:	0003      	movs	r3, r0
 80028c2:	613b      	str	r3, [r7, #16]
	pins &= GPIO_Pin_All;
 80028c4:	687b      	ldr	r3, [r7, #4]
 80028c6:	041b      	lsls	r3, r3, #16
 80028c8:	0c1b      	lsrs	r3, r3, #16
 80028ca:	607b      	str	r3, [r7, #4]
	uint32_t pos = 0;
 80028cc:	2300      	movs	r3, #0
 80028ce:	617b      	str	r3, [r7, #20]
	while (pins)
 80028d0:	e026      	b.n	8002920 <GPIO_ConfigAlternate+0x72>
	{
		if (pins & 0x1)
 80028d2:	687b      	ldr	r3, [r7, #4]
 80028d4:	2201      	movs	r2, #1
 80028d6:	4013      	ands	r3, r2
 80028d8:	d01c      	beq.n	8002914 <GPIO_ConfigAlternate+0x66>
		{
			uint32_t alt_offset = (pos & 0x7) * 4;
 80028da:	697b      	ldr	r3, [r7, #20]
 80028dc:	2207      	movs	r2, #7
 80028de:	4013      	ands	r3, r2
 80028e0:	009b      	lsls	r3, r3, #2
 80028e2:	60fb      	str	r3, [r7, #12]
			MODIFY_REG(gpio->AFR[pos >> 3], (0xF << alt_offset), (af << alt_offset));
 80028e4:	697b      	ldr	r3, [r7, #20]
 80028e6:	08da      	lsrs	r2, r3, #3
 80028e8:	693b      	ldr	r3, [r7, #16]
 80028ea:	3208      	adds	r2, #8
 80028ec:	0092      	lsls	r2, r2, #2
 80028ee:	58d3      	ldr	r3, [r2, r3]
 80028f0:	210f      	movs	r1, #15
 80028f2:	68fa      	ldr	r2, [r7, #12]
 80028f4:	4091      	lsls	r1, r2
 80028f6:	000a      	movs	r2, r1
 80028f8:	43d2      	mvns	r2, r2
 80028fa:	401a      	ands	r2, r3
 80028fc:	0011      	movs	r1, r2
 80028fe:	683a      	ldr	r2, [r7, #0]
 8002900:	68fb      	ldr	r3, [r7, #12]
 8002902:	409a      	lsls	r2, r3
 8002904:	0013      	movs	r3, r2
 8002906:	697a      	ldr	r2, [r7, #20]
 8002908:	08d2      	lsrs	r2, r2, #3
 800290a:	4319      	orrs	r1, r3
 800290c:	693b      	ldr	r3, [r7, #16]
 800290e:	3208      	adds	r2, #8
 8002910:	0092      	lsls	r2, r2, #2
 8002912:	50d1      	str	r1, [r2, r3]
		}
		pins >>= 1;
 8002914:	687b      	ldr	r3, [r7, #4]
 8002916:	085b      	lsrs	r3, r3, #1
 8002918:	607b      	str	r3, [r7, #4]
		pos++;
 800291a:	697b      	ldr	r3, [r7, #20]
 800291c:	3301      	adds	r3, #1
 800291e:	617b      	str	r3, [r7, #20]
	while (pins)
 8002920:	687b      	ldr	r3, [r7, #4]
 8002922:	2b00      	cmp	r3, #0
 8002924:	d1d5      	bne.n	80028d2 <GPIO_ConfigAlternate+0x24>
	}
}
 8002926:	46c0      	nop			@ (mov r8, r8)
 8002928:	46c0      	nop			@ (mov r8, r8)
 800292a:	46bd      	mov	sp, r7
 800292c:	b006      	add	sp, #24
 800292e:	bd80      	pop	{r7, pc}

08002930 <GPIO_ConfigInterrupt>:

#ifdef GPIO_USE_IRQS
static void GPIO_ConfigInterrupt(int gpio_index, int n, GPIO_IT_Dir_t dir)
{
 8002930:	b580      	push	{r7, lr}
 8002932:	b088      	sub	sp, #32
 8002934:	af00      	add	r7, sp, #0
 8002936:	60f8      	str	r0, [r7, #12]
 8002938:	60b9      	str	r1, [r7, #8]
 800293a:	1dfb      	adds	r3, r7, #7
 800293c:	701a      	strb	r2, [r3, #0]
	uint32_t pin = 1 << n;
 800293e:	2201      	movs	r2, #1
 8002940:	68bb      	ldr	r3, [r7, #8]
 8002942:	409a      	lsls	r2, r3
 8002944:	0013      	movs	r3, r2
 8002946:	61fb      	str	r3, [r7, #28]
	if (dir == GPIO_IT_None)
 8002948:	1dfb      	adds	r3, r7, #7
 800294a:	781b      	ldrb	r3, [r3, #0]
 800294c:	2b00      	cmp	r3, #0
 800294e:	d109      	bne.n	8002964 <GPIO_ConfigInterrupt+0x34>
	{
		// Disable the EXTI channel.
		CLEAR_BIT(EXTI->IMR, pin);
 8002950:	4a30      	ldr	r2, [pc, #192]	@ (8002a14 <GPIO_ConfigInterrupt+0xe4>)
 8002952:	2380      	movs	r3, #128	@ 0x80
 8002954:	58d3      	ldr	r3, [r2, r3]
 8002956:	69fa      	ldr	r2, [r7, #28]
 8002958:	43d2      	mvns	r2, r2
 800295a:	492e      	ldr	r1, [pc, #184]	@ (8002a14 <GPIO_ConfigInterrupt+0xe4>)
 800295c:	4013      	ands	r3, r2
 800295e:	2280      	movs	r2, #128	@ 0x80
 8002960:	508b      	str	r3, [r1, r2]
		// Configure the EXTI channel
		SET_BIT(EXTI->IMR, pin);
		MODIFY_REG(EXTI->RTSR, pin, (dir & GPIO_IT_Rising) ? pin : 0);
		MODIFY_REG(EXTI->FTSR, pin, (dir & GPIO_IT_Falling) ? pin : 0);
	}
}
 8002962:	e052      	b.n	8002a0a <GPIO_ConfigInterrupt+0xda>
		__HAL_RCC_SYSCFG_CLK_ENABLE();
 8002964:	4b2c      	ldr	r3, [pc, #176]	@ (8002a18 <GPIO_ConfigInterrupt+0xe8>)
 8002966:	6c1a      	ldr	r2, [r3, #64]	@ 0x40
 8002968:	4b2b      	ldr	r3, [pc, #172]	@ (8002a18 <GPIO_ConfigInterrupt+0xe8>)
 800296a:	2101      	movs	r1, #1
 800296c:	430a      	orrs	r2, r1
 800296e:	641a      	str	r2, [r3, #64]	@ 0x40
 8002970:	4b29      	ldr	r3, [pc, #164]	@ (8002a18 <GPIO_ConfigInterrupt+0xe8>)
 8002972:	6c1b      	ldr	r3, [r3, #64]	@ 0x40
 8002974:	2201      	movs	r2, #1
 8002976:	4013      	ands	r3, r2
 8002978:	617b      	str	r3, [r7, #20]
 800297a:	697b      	ldr	r3, [r7, #20]
		uint32_t offset = (n & 0x3) * 8;
 800297c:	68bb      	ldr	r3, [r7, #8]
 800297e:	2203      	movs	r2, #3
 8002980:	4013      	ands	r3, r2
 8002982:	00db      	lsls	r3, r3, #3
 8002984:	61bb      	str	r3, [r7, #24]
		MODIFY_REG(EXTI->EXTICR[n >> 2], 0xF << offset, gpio_index << offset);
 8002986:	4a23      	ldr	r2, [pc, #140]	@ (8002a14 <GPIO_ConfigInterrupt+0xe4>)
 8002988:	68bb      	ldr	r3, [r7, #8]
 800298a:	109b      	asrs	r3, r3, #2
 800298c:	3318      	adds	r3, #24
 800298e:	009b      	lsls	r3, r3, #2
 8002990:	589b      	ldr	r3, [r3, r2]
 8002992:	210f      	movs	r1, #15
 8002994:	69ba      	ldr	r2, [r7, #24]
 8002996:	4091      	lsls	r1, r2
 8002998:	000a      	movs	r2, r1
 800299a:	43d2      	mvns	r2, r2
 800299c:	401a      	ands	r2, r3
 800299e:	68f9      	ldr	r1, [r7, #12]
 80029a0:	69bb      	ldr	r3, [r7, #24]
 80029a2:	4099      	lsls	r1, r3
 80029a4:	000b      	movs	r3, r1
 80029a6:	0018      	movs	r0, r3
 80029a8:	491a      	ldr	r1, [pc, #104]	@ (8002a14 <GPIO_ConfigInterrupt+0xe4>)
 80029aa:	68bb      	ldr	r3, [r7, #8]
 80029ac:	109b      	asrs	r3, r3, #2
 80029ae:	4302      	orrs	r2, r0
 80029b0:	3318      	adds	r3, #24
 80029b2:	009b      	lsls	r3, r3, #2
 80029b4:	505a      	str	r2, [r3, r1]
		SET_BIT(EXTI->IMR, pin);
 80029b6:	4a17      	ldr	r2, [pc, #92]	@ (8002a14 <GPIO_ConfigInterrupt+0xe4>)
 80029b8:	2380      	movs	r3, #128	@ 0x80
 80029ba:	58d2      	ldr	r2, [r2, r3]
 80029bc:	4915      	ldr	r1, [pc, #84]	@ (8002a14 <GPIO_ConfigInterrupt+0xe4>)
 80029be:	69fb      	ldr	r3, [r7, #28]
 80029c0:	4313      	orrs	r3, r2
 80029c2:	2280      	movs	r2, #128	@ 0x80
 80029c4:	508b      	str	r3, [r1, r2]
		MODIFY_REG(EXTI->RTSR, pin, (dir & GPIO_IT_Rising) ? pin : 0);
 80029c6:	4b13      	ldr	r3, [pc, #76]	@ (8002a14 <GPIO_ConfigInterrupt+0xe4>)
 80029c8:	681b      	ldr	r3, [r3, #0]
 80029ca:	69fa      	ldr	r2, [r7, #28]
 80029cc:	43d2      	mvns	r2, r2
 80029ce:	401a      	ands	r2, r3
 80029d0:	0011      	movs	r1, r2
 80029d2:	1dfb      	adds	r3, r7, #7
 80029d4:	781b      	ldrb	r3, [r3, #0]
 80029d6:	2201      	movs	r2, #1
 80029d8:	4013      	ands	r3, r2
 80029da:	d001      	beq.n	80029e0 <GPIO_ConfigInterrupt+0xb0>
 80029dc:	69fa      	ldr	r2, [r7, #28]
 80029de:	e000      	b.n	80029e2 <GPIO_ConfigInterrupt+0xb2>
 80029e0:	2200      	movs	r2, #0
 80029e2:	4b0c      	ldr	r3, [pc, #48]	@ (8002a14 <GPIO_ConfigInterrupt+0xe4>)
 80029e4:	430a      	orrs	r2, r1
 80029e6:	601a      	str	r2, [r3, #0]
		MODIFY_REG(EXTI->FTSR, pin, (dir & GPIO_IT_Falling) ? pin : 0);
 80029e8:	4b0a      	ldr	r3, [pc, #40]	@ (8002a14 <GPIO_ConfigInterrupt+0xe4>)
 80029ea:	685b      	ldr	r3, [r3, #4]
 80029ec:	69fa      	ldr	r2, [r7, #28]
 80029ee:	43d2      	mvns	r2, r2
 80029f0:	401a      	ands	r2, r3
 80029f2:	0011      	movs	r1, r2
 80029f4:	1dfb      	adds	r3, r7, #7
 80029f6:	781b      	ldrb	r3, [r3, #0]
 80029f8:	2202      	movs	r2, #2
 80029fa:	4013      	ands	r3, r2
 80029fc:	d001      	beq.n	8002a02 <GPIO_ConfigInterrupt+0xd2>
 80029fe:	69fa      	ldr	r2, [r7, #28]
 8002a00:	e000      	b.n	8002a04 <GPIO_ConfigInterrupt+0xd4>
 8002a02:	2200      	movs	r2, #0
 8002a04:	4b03      	ldr	r3, [pc, #12]	@ (8002a14 <GPIO_ConfigInterrupt+0xe4>)
 8002a06:	430a      	orrs	r2, r1
 8002a08:	605a      	str	r2, [r3, #4]
}
 8002a0a:	46c0      	nop			@ (mov r8, r8)
 8002a0c:	46bd      	mov	sp, r7
 8002a0e:	b008      	add	sp, #32
 8002a10:	bd80      	pop	{r7, pc}
 8002a12:	46c0      	nop			@ (mov r8, r8)
 8002a14:	40021800 	.word	0x40021800
 8002a18:	40021000 	.word	0x40021000

08002a1c <GPIO_SWARBitDouble>:
#endif

static uint32_t GPIO_SWARBitDouble(uint32_t s)
{
 8002a1c:	b580      	push	{r7, lr}
 8002a1e:	b082      	sub	sp, #8
 8002a20:	af00      	add	r7, sp, #0
 8002a22:	6078      	str	r0, [r7, #4]
	s = (s & ~0xFF00FF00) | ((s & 0xFF00FF00) << 8);
 8002a24:	687b      	ldr	r3, [r7, #4]
 8002a26:	4a14      	ldr	r2, [pc, #80]	@ (8002a78 <GPIO_SWARBitDouble+0x5c>)
 8002a28:	401a      	ands	r2, r3
 8002a2a:	687b      	ldr	r3, [r7, #4]
 8002a2c:	0219      	lsls	r1, r3, #8
 8002a2e:	23ff      	movs	r3, #255	@ 0xff
 8002a30:	041b      	lsls	r3, r3, #16
 8002a32:	400b      	ands	r3, r1
 8002a34:	4313      	orrs	r3, r2
 8002a36:	607b      	str	r3, [r7, #4]
	s = (s & ~0xF0F0F0F0) | ((s & 0xF0F0F0F0) << 4);
 8002a38:	687b      	ldr	r3, [r7, #4]
 8002a3a:	4a10      	ldr	r2, [pc, #64]	@ (8002a7c <GPIO_SWARBitDouble+0x60>)
 8002a3c:	401a      	ands	r2, r3
 8002a3e:	687b      	ldr	r3, [r7, #4]
 8002a40:	011b      	lsls	r3, r3, #4
 8002a42:	490f      	ldr	r1, [pc, #60]	@ (8002a80 <GPIO_SWARBitDouble+0x64>)
 8002a44:	400b      	ands	r3, r1
 8002a46:	4313      	orrs	r3, r2
 8002a48:	607b      	str	r3, [r7, #4]
	s = (s & ~0xCCCCCCCC) | ((s & 0xCCCCCCCC) << 2);
 8002a4a:	687b      	ldr	r3, [r7, #4]
 8002a4c:	4a0d      	ldr	r2, [pc, #52]	@ (8002a84 <GPIO_SWARBitDouble+0x68>)
 8002a4e:	401a      	ands	r2, r3
 8002a50:	687b      	ldr	r3, [r7, #4]
 8002a52:	009b      	lsls	r3, r3, #2
 8002a54:	490c      	ldr	r1, [pc, #48]	@ (8002a88 <GPIO_SWARBitDouble+0x6c>)
 8002a56:	400b      	ands	r3, r1
 8002a58:	4313      	orrs	r3, r2
 8002a5a:	607b      	str	r3, [r7, #4]
	s = (s & ~0xAAAAAAAA) | ((s & 0xAAAAAAAA) << 1);
 8002a5c:	687b      	ldr	r3, [r7, #4]
 8002a5e:	4a0b      	ldr	r2, [pc, #44]	@ (8002a8c <GPIO_SWARBitDouble+0x70>)
 8002a60:	401a      	ands	r2, r3
 8002a62:	687b      	ldr	r3, [r7, #4]
 8002a64:	005b      	lsls	r3, r3, #1
 8002a66:	490a      	ldr	r1, [pc, #40]	@ (8002a90 <GPIO_SWARBitDouble+0x74>)
 8002a68:	400b      	ands	r3, r1
 8002a6a:	4313      	orrs	r3, r2
 8002a6c:	607b      	str	r3, [r7, #4]
	return s;
 8002a6e:	687b      	ldr	r3, [r7, #4]
}
 8002a70:	0018      	movs	r0, r3
 8002a72:	46bd      	mov	sp, r7
 8002a74:	b002      	add	sp, #8
 8002a76:	bd80      	pop	{r7, pc}
 8002a78:	00ff00ff 	.word	0x00ff00ff
 8002a7c:	0f0f0f0f 	.word	0x0f0f0f0f
 8002a80:	0f0f0f00 	.word	0x0f0f0f00
 8002a84:	33333333 	.word	0x33333333
 8002a88:	33333330 	.word	0x33333330
 8002a8c:	55555555 	.word	0x55555555
 8002a90:	55555554 	.word	0x55555554

08002a94 <EXTIx_IRQHandler>:


#ifdef GPIO_USE_IRQS
static inline void EXTIx_IRQHandler(int n)
{
 8002a94:	b580      	push	{r7, lr}
 8002a96:	b082      	sub	sp, #8
 8002a98:	af00      	add	r7, sp, #0
 8002a9a:	6078      	str	r0, [r7, #4]
	if (__HAL_GPIO_EXTI_GET_IT(1 << n) != RESET)
 8002a9c:	4b13      	ldr	r3, [pc, #76]	@ (8002aec <EXTIx_IRQHandler+0x58>)
 8002a9e:	68db      	ldr	r3, [r3, #12]
 8002aa0:	2101      	movs	r1, #1
 8002aa2:	687a      	ldr	r2, [r7, #4]
 8002aa4:	4091      	lsls	r1, r2
 8002aa6:	000a      	movs	r2, r1
 8002aa8:	4013      	ands	r3, r2
 8002aaa:	d107      	bne.n	8002abc <EXTIx_IRQHandler+0x28>
 8002aac:	4b0f      	ldr	r3, [pc, #60]	@ (8002aec <EXTIx_IRQHandler+0x58>)
 8002aae:	691b      	ldr	r3, [r3, #16]
 8002ab0:	2101      	movs	r1, #1
 8002ab2:	687a      	ldr	r2, [r7, #4]
 8002ab4:	4091      	lsls	r1, r2
 8002ab6:	000a      	movs	r2, r1
 8002ab8:	4013      	ands	r3, r2
 8002aba:	d001      	beq.n	8002ac0 <EXTIx_IRQHandler+0x2c>
 8002abc:	2301      	movs	r3, #1
 8002abe:	e000      	b.n	8002ac2 <EXTIx_IRQHandler+0x2e>
 8002ac0:	2300      	movs	r3, #0
 8002ac2:	2b00      	cmp	r3, #0
 8002ac4:	d00e      	beq.n	8002ae4 <EXTIx_IRQHandler+0x50>
	{
		__HAL_GPIO_EXTI_CLEAR_IT(1 << n);
 8002ac6:	2201      	movs	r2, #1
 8002ac8:	687b      	ldr	r3, [r7, #4]
 8002aca:	409a      	lsls	r2, r3
 8002acc:	4b07      	ldr	r3, [pc, #28]	@ (8002aec <EXTIx_IRQHandler+0x58>)
 8002ace:	60da      	str	r2, [r3, #12]
 8002ad0:	2201      	movs	r2, #1
 8002ad2:	687b      	ldr	r3, [r7, #4]
 8002ad4:	409a      	lsls	r2, r3
 8002ad6:	4b05      	ldr	r3, [pc, #20]	@ (8002aec <EXTIx_IRQHandler+0x58>)
 8002ad8:	611a      	str	r2, [r3, #16]
		gCallback[n]();
 8002ada:	4b05      	ldr	r3, [pc, #20]	@ (8002af0 <EXTIx_IRQHandler+0x5c>)
 8002adc:	687a      	ldr	r2, [r7, #4]
 8002ade:	0092      	lsls	r2, r2, #2
 8002ae0:	58d3      	ldr	r3, [r2, r3]
 8002ae2:	4798      	blx	r3
	}
}
 8002ae4:	46c0      	nop			@ (mov r8, r8)
 8002ae6:	46bd      	mov	sp, r7
 8002ae8:	b002      	add	sp, #8
 8002aea:	bd80      	pop	{r7, pc}
 8002aec:	40021800 	.word	0x40021800
 8002af0:	2000018c 	.word	0x2000018c

08002af4 <EXTIx_EnableIRQn>:

static void EXTIx_EnableIRQn(int n)
{
 8002af4:	b580      	push	{r7, lr}
 8002af6:	b082      	sub	sp, #8
 8002af8:	af00      	add	r7, sp, #0
 8002afa:	6078      	str	r0, [r7, #4]
	else if (n <= 3) 	{ HAL_NVIC_EnableIRQ(EXTI3_IRQn); }
	else if (n <= 4) 	{ HAL_NVIC_EnableIRQ(EXTI4_IRQn); }
	else if (n <= 9) 	{ HAL_NVIC_EnableIRQ(EXTI9_5_IRQn); }
	else 				{ HAL_NVIC_EnableIRQ(EXTI15_10_IRQn); }
#else
	if (n <= 1) 		{ HAL_NVIC_EnableIRQ(EXTI0_1_IRQn); }
 8002afc:	687b      	ldr	r3, [r7, #4]
 8002afe:	2b01      	cmp	r3, #1
 8002b00:	dc03      	bgt.n	8002b0a <EXTIx_EnableIRQn+0x16>
 8002b02:	2005      	movs	r0, #5
 8002b04:	f7ff fa5d 	bl	8001fc2 <HAL_NVIC_EnableIRQ>
	else if (n <= 3) 	{ HAL_NVIC_EnableIRQ(EXTI2_3_IRQn); }
	else 				{ HAL_NVIC_EnableIRQ(EXTI4_15_IRQn); }
#endif
}
 8002b08:	e009      	b.n	8002b1e <EXTIx_EnableIRQn+0x2a>
	else if (n <= 3) 	{ HAL_NVIC_EnableIRQ(EXTI2_3_IRQn); }
 8002b0a:	687b      	ldr	r3, [r7, #4]
 8002b0c:	2b03      	cmp	r3, #3
 8002b0e:	dc03      	bgt.n	8002b18 <EXTIx_EnableIRQn+0x24>
 8002b10:	2006      	movs	r0, #6
 8002b12:	f7ff fa56 	bl	8001fc2 <HAL_NVIC_EnableIRQ>
}
 8002b16:	e002      	b.n	8002b1e <EXTIx_EnableIRQn+0x2a>
	else 				{ HAL_NVIC_EnableIRQ(EXTI4_15_IRQn); }
 8002b18:	2007      	movs	r0, #7
 8002b1a:	f7ff fa52 	bl	8001fc2 <HAL_NVIC_EnableIRQ>
}
 8002b1e:	46c0      	nop			@ (mov r8, r8)
 8002b20:	46bd      	mov	sp, r7
 8002b22:	b002      	add	sp, #8
 8002b24:	bd80      	pop	{r7, pc}

08002b26 <EXTI4_15_IRQHandler>:
#if    defined(GPIO_IRQ4_ENABLE) || defined(GPIO_IRQ5_ENABLE) || defined(GPIO_IRQ6_ENABLE)   \
    || defined(GPIO_IRQ7_ENABLE) || defined(GPIO_IRQ8_ENABLE) || defined(GPIO_IRQ9_ENABLE)   \
	|| defined(GPIO_IRQ10_ENABLE) || defined(GPIO_IRQ11_ENABLE) || defined(GPIO_IRQ12_ENABLE)\
	|| defined(GPIO_IRQ13_ENABLE) || defined(GPIO_IRQ14_ENABLE) || defined(GPIO_IRQ15_ENABLE)
void EXTI4_15_IRQHandler(void)
{
 8002b26:	b580      	push	{r7, lr}
 8002b28:	af00      	add	r7, sp, #0
#endif
#ifdef GPIO_IRQ5_ENABLE
	EXTIx_IRQHandler(5);
#endif
#ifdef GPIO_IRQ6_ENABLE
	EXTIx_IRQHandler(6);
 8002b2a:	2006      	movs	r0, #6
 8002b2c:	f7ff ffb2 	bl	8002a94 <EXTIx_IRQHandler>
#endif
#ifdef GPIO_IRQ7_ENABLE
	EXTIx_IRQHandler(7);
#endif
#ifdef GPIO_IRQ8_ENABLE
	EXTIx_IRQHandler(8);
 8002b30:	2008      	movs	r0, #8
 8002b32:	f7ff ffaf 	bl	8002a94 <EXTIx_IRQHandler>
#endif
#ifdef GPIO_IRQ9_ENABLE
	EXTIx_IRQHandler(9);
 8002b36:	2009      	movs	r0, #9
 8002b38:	f7ff ffac 	bl	8002a94 <EXTIx_IRQHandler>
#endif
#ifdef GPIO_IRQ10_ENABLE
	EXTIx_IRQHandler(10);
 8002b3c:	200a      	movs	r0, #10
 8002b3e:	f7ff ffa9 	bl	8002a94 <EXTIx_IRQHandler>
	EXTIx_IRQHandler(14);
#endif
#ifdef GPIO_IRQ15_ENABLE
	EXTIx_IRQHandler(15);
#endif
}
 8002b42:	46c0      	nop			@ (mov r8, r8)
 8002b44:	46bd      	mov	sp, r7
 8002b46:	bd80      	pop	{r7, pc}

08002b48 <CLK_GetPCLKFreq>:

static inline uint32_t CLK_GetPCLKFreq(void)
{
 8002b48:	b580      	push	{r7, lr}
 8002b4a:	af00      	add	r7, sp, #0
	return CLK_SYSCLK_FREQ;
 8002b4c:	4b01      	ldr	r3, [pc, #4]	@ (8002b54 <CLK_GetPCLKFreq+0xc>)
}
 8002b4e:	0018      	movs	r0, r3
 8002b50:	46bd      	mov	sp, r7
 8002b52:	bd80      	pop	{r7, pc}
 8002b54:	02dc6c00 	.word	0x02dc6c00

08002b58 <SPI_Init>:
/*
 * PUBLIC FUNCTIONS
 */

void SPI_Init(SPI_t * spi, uint32_t bitrate, SPI_Mode_t mode)
{
 8002b58:	b580      	push	{r7, lr}
 8002b5a:	b088      	sub	sp, #32
 8002b5c:	af00      	add	r7, sp, #0
 8002b5e:	60f8      	str	r0, [r7, #12]
 8002b60:	60b9      	str	r1, [r7, #8]
 8002b62:	1dfb      	adds	r3, r7, #7
 8002b64:	701a      	strb	r2, [r3, #0]
	SPIx_Init(spi);
 8002b66:	68fb      	ldr	r3, [r7, #12]
 8002b68:	0018      	movs	r0, r3
 8002b6a:	f000 f89b 	bl	8002ca4 <SPIx_Init>

	__HAL_SPI_DISABLE(spi);
 8002b6e:	68fb      	ldr	r3, [r7, #12]
 8002b70:	681b      	ldr	r3, [r3, #0]
 8002b72:	681a      	ldr	r2, [r3, #0]
 8002b74:	68fb      	ldr	r3, [r7, #12]
 8002b76:	681b      	ldr	r3, [r3, #0]
 8002b78:	2140      	movs	r1, #64	@ 0x40
 8002b7a:	438a      	bics	r2, r1
 8002b7c:	601a      	str	r2, [r3, #0]

	uint32_t prescalar = SPI_SelectPrescalar(spi, bitrate);
 8002b7e:	68ba      	ldr	r2, [r7, #8]
 8002b80:	68fb      	ldr	r3, [r7, #12]
 8002b82:	0011      	movs	r1, r2
 8002b84:	0018      	movs	r0, r3
 8002b86:	f000 f866 	bl	8002c56 <SPI_SelectPrescalar>
 8002b8a:	0003      	movs	r3, r0
 8002b8c:	61fb      	str	r3, [r7, #28]

	uint32_t cr1 = SPI_MODE_MASTER | SPI_DIRECTION_2LINES | mode
			| (SPI_NSS_SOFT & SPI_CR1_SSM) | prescalar | SPI_FIRSTBIT_MSB | SPI_CRCCALCULATION_DISABLE;
 8002b8e:	1dfb      	adds	r3, r7, #7
 8002b90:	781a      	ldrb	r2, [r3, #0]
 8002b92:	69fb      	ldr	r3, [r7, #28]
 8002b94:	4313      	orrs	r3, r2
	uint32_t cr1 = SPI_MODE_MASTER | SPI_DIRECTION_2LINES | mode
 8002b96:	22c1      	movs	r2, #193	@ 0xc1
 8002b98:	0092      	lsls	r2, r2, #2
 8002b9a:	4313      	orrs	r3, r2
 8002b9c:	61bb      	str	r3, [r7, #24]
	uint32_t cr2 = ((SPI_NSS_SOFT >> 16u) & SPI_CR2_SSOE) | SPI_TIMODE_DISABLE;
 8002b9e:	2300      	movs	r3, #0
 8002ba0:	617b      	str	r3, [r7, #20]

#if defined(STM32G0) || defined(STM32C0)
	cr2 |= SPI_DATASIZE_8BIT | SPI_RXFIFO_THRESHOLD_QF;
 8002ba2:	697b      	ldr	r3, [r7, #20]
 8002ba4:	22b8      	movs	r2, #184	@ 0xb8
 8002ba6:	0152      	lsls	r2, r2, #5
 8002ba8:	4313      	orrs	r3, r2
 8002baa:	617b      	str	r3, [r7, #20]
#else
	cr1 |= SPI_DATASIZE_8BIT;
#endif

	spi->Instance->CR1 = cr1;
 8002bac:	68fb      	ldr	r3, [r7, #12]
 8002bae:	681b      	ldr	r3, [r3, #0]
 8002bb0:	69ba      	ldr	r2, [r7, #24]
 8002bb2:	601a      	str	r2, [r3, #0]
	spi->Instance->CR2 = cr2;
 8002bb4:	68fb      	ldr	r3, [r7, #12]
 8002bb6:	681b      	ldr	r3, [r3, #0]
 8002bb8:	697a      	ldr	r2, [r7, #20]
 8002bba:	605a      	str	r2, [r3, #4]

#ifdef SPI_I2SCFGR_I2SMOD
	// This register is only defined on some cores.
	spi->Instance->I2SCFGR &= ~SPI_I2SCFGR_I2SMOD;
 8002bbc:	68fb      	ldr	r3, [r7, #12]
 8002bbe:	681b      	ldr	r3, [r3, #0]
 8002bc0:	69da      	ldr	r2, [r3, #28]
 8002bc2:	68fb      	ldr	r3, [r7, #12]
 8002bc4:	681b      	ldr	r3, [r3, #0]
 8002bc6:	4907      	ldr	r1, [pc, #28]	@ (8002be4 <SPI_Init+0x8c>)
 8002bc8:	400a      	ands	r2, r1
 8002bca:	61da      	str	r2, [r3, #28]
#endif

	__HAL_SPI_ENABLE(spi);
 8002bcc:	68fb      	ldr	r3, [r7, #12]
 8002bce:	681b      	ldr	r3, [r3, #0]
 8002bd0:	681a      	ldr	r2, [r3, #0]
 8002bd2:	68fb      	ldr	r3, [r7, #12]
 8002bd4:	681b      	ldr	r3, [r3, #0]
 8002bd6:	2140      	movs	r1, #64	@ 0x40
 8002bd8:	430a      	orrs	r2, r1
 8002bda:	601a      	str	r2, [r3, #0]
}
 8002bdc:	46c0      	nop			@ (mov r8, r8)
 8002bde:	46bd      	mov	sp, r7
 8002be0:	b008      	add	sp, #32
 8002be2:	bd80      	pop	{r7, pc}
 8002be4:	fffff7ff 	.word	0xfffff7ff

08002be8 <SPI_Write>:
	__HAL_SPI_DISABLE(spi);
	SPIx_Deinit(spi);
}

void SPI_Write(SPI_t * spi, const uint8_t * data, uint32_t count)
{
 8002be8:	b580      	push	{r7, lr}
 8002bea:	b086      	sub	sp, #24
 8002bec:	af00      	add	r7, sp, #0
 8002bee:	60f8      	str	r0, [r7, #12]
 8002bf0:	60b9      	str	r1, [r7, #8]
 8002bf2:	607a      	str	r2, [r7, #4]
	for (uint32_t i = 0; i < count; i++)
 8002bf4:	2300      	movs	r3, #0
 8002bf6:	617b      	str	r3, [r7, #20]
 8002bf8:	e012      	b.n	8002c20 <SPI_Write+0x38>
	{
		while (!__HAL_SPI_GET_FLAG(spi, SPI_FLAG_TXE));
 8002bfa:	46c0      	nop			@ (mov r8, r8)
 8002bfc:	68fb      	ldr	r3, [r7, #12]
 8002bfe:	681b      	ldr	r3, [r3, #0]
 8002c00:	689b      	ldr	r3, [r3, #8]
 8002c02:	2202      	movs	r2, #2
 8002c04:	4013      	ands	r3, r2
 8002c06:	2b02      	cmp	r3, #2
 8002c08:	d1f8      	bne.n	8002bfc <SPI_Write+0x14>
		_SPI_TX(spi, data[i]);
 8002c0a:	68ba      	ldr	r2, [r7, #8]
 8002c0c:	697b      	ldr	r3, [r7, #20]
 8002c0e:	18d2      	adds	r2, r2, r3
 8002c10:	68fb      	ldr	r3, [r7, #12]
 8002c12:	681b      	ldr	r3, [r3, #0]
 8002c14:	330c      	adds	r3, #12
 8002c16:	7812      	ldrb	r2, [r2, #0]
 8002c18:	701a      	strb	r2, [r3, #0]
	for (uint32_t i = 0; i < count; i++)
 8002c1a:	697b      	ldr	r3, [r7, #20]
 8002c1c:	3301      	adds	r3, #1
 8002c1e:	617b      	str	r3, [r7, #20]
 8002c20:	697a      	ldr	r2, [r7, #20]
 8002c22:	687b      	ldr	r3, [r7, #4]
 8002c24:	429a      	cmp	r2, r3
 8002c26:	d3e8      	bcc.n	8002bfa <SPI_Write+0x12>
	}
	while (__HAL_SPI_GET_FLAG(spi, SPI_FLAG_BSY));
 8002c28:	46c0      	nop			@ (mov r8, r8)
 8002c2a:	68fb      	ldr	r3, [r7, #12]
 8002c2c:	681b      	ldr	r3, [r3, #0]
 8002c2e:	689b      	ldr	r3, [r3, #8]
 8002c30:	2280      	movs	r2, #128	@ 0x80
 8002c32:	4013      	ands	r3, r2
 8002c34:	2b80      	cmp	r3, #128	@ 0x80
 8002c36:	d0f8      	beq.n	8002c2a <SPI_Write+0x42>
	__HAL_SPI_CLEAR_OVRFLAG(spi);
 8002c38:	2300      	movs	r3, #0
 8002c3a:	613b      	str	r3, [r7, #16]
 8002c3c:	68fb      	ldr	r3, [r7, #12]
 8002c3e:	681b      	ldr	r3, [r3, #0]
 8002c40:	68db      	ldr	r3, [r3, #12]
 8002c42:	613b      	str	r3, [r7, #16]
 8002c44:	68fb      	ldr	r3, [r7, #12]
 8002c46:	681b      	ldr	r3, [r3, #0]
 8002c48:	689b      	ldr	r3, [r3, #8]
 8002c4a:	613b      	str	r3, [r7, #16]
 8002c4c:	693b      	ldr	r3, [r7, #16]
}
 8002c4e:	46c0      	nop			@ (mov r8, r8)
 8002c50:	46bd      	mov	sp, r7
 8002c52:	b006      	add	sp, #24
 8002c54:	bd80      	pop	{r7, pc}

08002c56 <SPI_SelectPrescalar>:
/*
 * PRIVATE FUNCTIONS
 */

static uint32_t SPI_SelectPrescalar(SPI_t * spi, uint32_t target)
{
 8002c56:	b580      	push	{r7, lr}
 8002c58:	b086      	sub	sp, #24
 8002c5a:	af00      	add	r7, sp, #0
 8002c5c:	6078      	str	r0, [r7, #4]
 8002c5e:	6039      	str	r1, [r7, #0]
	// Div clock by 2, because the prescalars start at 2
	uint32_t clk = CLK_GetPCLKFreq() >> 1;
 8002c60:	f7ff ff72 	bl	8002b48 <CLK_GetPCLKFreq>
 8002c64:	0003      	movs	r3, r0
 8002c66:	085b      	lsrs	r3, r3, #1
 8002c68:	60fb      	str	r3, [r7, #12]
	uint32_t actual;
	uint32_t k;
	for (k = 0; k <= 0x7; k++)
 8002c6a:	2300      	movs	r3, #0
 8002c6c:	613b      	str	r3, [r7, #16]
 8002c6e:	e00b      	b.n	8002c88 <SPI_SelectPrescalar+0x32>
	{
		actual = clk >> k;
 8002c70:	68fa      	ldr	r2, [r7, #12]
 8002c72:	693b      	ldr	r3, [r7, #16]
 8002c74:	40da      	lsrs	r2, r3
 8002c76:	0013      	movs	r3, r2
 8002c78:	617b      	str	r3, [r7, #20]
		if (actual <= target)
 8002c7a:	697a      	ldr	r2, [r7, #20]
 8002c7c:	683b      	ldr	r3, [r7, #0]
 8002c7e:	429a      	cmp	r2, r3
 8002c80:	d906      	bls.n	8002c90 <SPI_SelectPrescalar+0x3a>
	for (k = 0; k <= 0x7; k++)
 8002c82:	693b      	ldr	r3, [r7, #16]
 8002c84:	3301      	adds	r3, #1
 8002c86:	613b      	str	r3, [r7, #16]
 8002c88:	693b      	ldr	r3, [r7, #16]
 8002c8a:	2b07      	cmp	r3, #7
 8002c8c:	d9f0      	bls.n	8002c70 <SPI_SelectPrescalar+0x1a>
 8002c8e:	e000      	b.n	8002c92 <SPI_SelectPrescalar+0x3c>
		{
			break;
 8002c90:	46c0      	nop			@ (mov r8, r8)
		}
	}
	spi->bitrate = actual;
 8002c92:	687b      	ldr	r3, [r7, #4]
 8002c94:	697a      	ldr	r2, [r7, #20]
 8002c96:	605a      	str	r2, [r3, #4]
	return k << SPI_CR1_BR_Pos;
 8002c98:	693b      	ldr	r3, [r7, #16]
 8002c9a:	00db      	lsls	r3, r3, #3
}
 8002c9c:	0018      	movs	r0, r3
 8002c9e:	46bd      	mov	sp, r7
 8002ca0:	b006      	add	sp, #24
 8002ca2:	bd80      	pop	{r7, pc}

08002ca4 <SPIx_Init>:

static void SPIx_Init(SPI_t * spi)
{
 8002ca4:	b580      	push	{r7, lr}
 8002ca6:	b084      	sub	sp, #16
 8002ca8:	af00      	add	r7, sp, #0
 8002caa:	6078      	str	r0, [r7, #4]
#ifdef SPI1_PINS
	if (spi == SPI_1)
 8002cac:	4b0d      	ldr	r3, [pc, #52]	@ (8002ce4 <SPIx_Init+0x40>)
 8002cae:	681b      	ldr	r3, [r3, #0]
 8002cb0:	687a      	ldr	r2, [r7, #4]
 8002cb2:	429a      	cmp	r2, r3
 8002cb4:	d112      	bne.n	8002cdc <SPIx_Init+0x38>
	{
		__HAL_RCC_SPI1_CLK_ENABLE();
 8002cb6:	4b0c      	ldr	r3, [pc, #48]	@ (8002ce8 <SPIx_Init+0x44>)
 8002cb8:	6c1a      	ldr	r2, [r3, #64]	@ 0x40
 8002cba:	4b0b      	ldr	r3, [pc, #44]	@ (8002ce8 <SPIx_Init+0x44>)
 8002cbc:	2180      	movs	r1, #128	@ 0x80
 8002cbe:	0149      	lsls	r1, r1, #5
 8002cc0:	430a      	orrs	r2, r1
 8002cc2:	641a      	str	r2, [r3, #64]	@ 0x40
 8002cc4:	4b08      	ldr	r3, [pc, #32]	@ (8002ce8 <SPIx_Init+0x44>)
 8002cc6:	6c1a      	ldr	r2, [r3, #64]	@ 0x40
 8002cc8:	2380      	movs	r3, #128	@ 0x80
 8002cca:	015b      	lsls	r3, r3, #5
 8002ccc:	4013      	ands	r3, r2
 8002cce:	60fb      	str	r3, [r7, #12]
 8002cd0:	68fb      	ldr	r3, [r7, #12]
		GPIO_EnableAlternate(SPI1_PINS, 0, SPI1_AF);
 8002cd2:	2200      	movs	r2, #0
 8002cd4:	2100      	movs	r1, #0
 8002cd6:	2038      	movs	r0, #56	@ 0x38
 8002cd8:	f7ff fce0 	bl	800269c <GPIO_EnableAlternate>
	{
		__HAL_RCC_SPI3_CLK_ENABLE();
		GPIO_EnableAlternate(SPI3_PINS, 0, SPI3_AF);
	}
#endif
}
 8002cdc:	46c0      	nop			@ (mov r8, r8)
 8002cde:	46bd      	mov	sp, r7
 8002ce0:	b004      	add	sp, #16
 8002ce2:	bd80      	pop	{r7, pc}
 8002ce4:	20000010 	.word	0x20000010
 8002ce8:	40021000 	.word	0x40021000

08002cec <CLK_GetPCLKFreq>:
{
 8002cec:	b580      	push	{r7, lr}
 8002cee:	af00      	add	r7, sp, #0
	return CLK_SYSCLK_FREQ;
 8002cf0:	4b01      	ldr	r3, [pc, #4]	@ (8002cf8 <CLK_GetPCLKFreq+0xc>)
}
 8002cf2:	0018      	movs	r0, r3
 8002cf4:	46bd      	mov	sp, r7
 8002cf6:	bd80      	pop	{r7, pc}
 8002cf8:	02dc6c00 	.word	0x02dc6c00

08002cfc <TIM_Init>:
/*
 * PUBLIC FUNCTIONS
 */

void TIM_Init(TIM_t * tim, uint32_t freq, uint32_t reload)
{
 8002cfc:	b580      	push	{r7, lr}
 8002cfe:	b086      	sub	sp, #24
 8002d00:	af00      	add	r7, sp, #0
 8002d02:	60f8      	str	r0, [r7, #12]
 8002d04:	60b9      	str	r1, [r7, #8]
 8002d06:	607a      	str	r2, [r7, #4]
	TIMx_Init(tim);
 8002d08:	68fb      	ldr	r3, [r7, #12]
 8002d0a:	0018      	movs	r0, r3
 8002d0c:	f000 f878 	bl	8002e00 <TIMx_Init>

	uint32_t cr1 = tim->Instance->CR1;
 8002d10:	68fb      	ldr	r3, [r7, #12]
 8002d12:	681b      	ldr	r3, [r3, #0]
 8002d14:	681b      	ldr	r3, [r3, #0]
 8002d16:	617b      	str	r3, [r7, #20]
	cr1 &= ~(TIM_CR1_DIR | TIM_CR1_CMS | TIM_CR1_CKD | TIM_CR1_ARPE);
 8002d18:	697b      	ldr	r3, [r7, #20]
 8002d1a:	4a0d      	ldr	r2, [pc, #52]	@ (8002d50 <TIM_Init+0x54>)
 8002d1c:	4013      	ands	r3, r2
 8002d1e:	617b      	str	r3, [r7, #20]
	cr1 |= TIM_AUTORELOAD_PRELOAD_ENABLE | TIM_CLOCKDIVISION_DIV1 | TIM_COUNTERMODE_UP;
 8002d20:	697b      	ldr	r3, [r7, #20]
 8002d22:	2280      	movs	r2, #128	@ 0x80
 8002d24:	4313      	orrs	r3, r2
 8002d26:	617b      	str	r3, [r7, #20]
	tim->Instance->CR1 = cr1;
 8002d28:	68fb      	ldr	r3, [r7, #12]
 8002d2a:	681b      	ldr	r3, [r3, #0]
 8002d2c:	697a      	ldr	r2, [r7, #20]
 8002d2e:	601a      	str	r2, [r3, #0]

	TIM_SetFreq(tim, freq);
 8002d30:	68ba      	ldr	r2, [r7, #8]
 8002d32:	68fb      	ldr	r3, [r7, #12]
 8002d34:	0011      	movs	r1, r2
 8002d36:	0018      	movs	r0, r3
 8002d38:	f000 f80c 	bl	8002d54 <TIM_SetFreq>
	TIM_SetReload(tim, reload);
 8002d3c:	687a      	ldr	r2, [r7, #4]
 8002d3e:	68fb      	ldr	r3, [r7, #12]
 8002d40:	0011      	movs	r1, r2
 8002d42:	0018      	movs	r0, r3
 8002d44:	f000 f81d 	bl	8002d82 <TIM_SetReload>
}
 8002d48:	46c0      	nop			@ (mov r8, r8)
 8002d4a:	46bd      	mov	sp, r7
 8002d4c:	b006      	add	sp, #24
 8002d4e:	bd80      	pop	{r7, pc}
 8002d50:	fffffc0f 	.word	0xfffffc0f

08002d54 <TIM_SetFreq>:

void TIM_SetFreq(TIM_t * tim, uint32_t freq)
{
 8002d54:	b580      	push	{r7, lr}
 8002d56:	b084      	sub	sp, #16
 8002d58:	af00      	add	r7, sp, #0
 8002d5a:	6078      	str	r0, [r7, #4]
 8002d5c:	6039      	str	r1, [r7, #0]
	uint32_t clk = CLK_GetPCLKFreq();
 8002d5e:	f7ff ffc5 	bl	8002cec <CLK_GetPCLKFreq>
 8002d62:	0003      	movs	r3, r0
 8002d64:	60fb      	str	r3, [r7, #12]
	tim->Instance->PSC = (clk / freq) - 1;
 8002d66:	6839      	ldr	r1, [r7, #0]
 8002d68:	68f8      	ldr	r0, [r7, #12]
 8002d6a:	f7fd f9cd 	bl	8000108 <__udivsi3>
 8002d6e:	0003      	movs	r3, r0
 8002d70:	001a      	movs	r2, r3
 8002d72:	687b      	ldr	r3, [r7, #4]
 8002d74:	681b      	ldr	r3, [r3, #0]
 8002d76:	3a01      	subs	r2, #1
 8002d78:	629a      	str	r2, [r3, #40]	@ 0x28
}
 8002d7a:	46c0      	nop			@ (mov r8, r8)
 8002d7c:	46bd      	mov	sp, r7
 8002d7e:	b004      	add	sp, #16
 8002d80:	bd80      	pop	{r7, pc}

08002d82 <TIM_SetReload>:

void TIM_SetReload(TIM_t * tim, uint32_t reload)
{
 8002d82:	b580      	push	{r7, lr}
 8002d84:	b082      	sub	sp, #8
 8002d86:	af00      	add	r7, sp, #0
 8002d88:	6078      	str	r0, [r7, #4]
 8002d8a:	6039      	str	r1, [r7, #0]
	tim->Instance->ARR = reload;
 8002d8c:	687b      	ldr	r3, [r7, #4]
 8002d8e:	681b      	ldr	r3, [r3, #0]
 8002d90:	683a      	ldr	r2, [r7, #0]
 8002d92:	62da      	str	r2, [r3, #44]	@ 0x2c
}
 8002d94:	46c0      	nop			@ (mov r8, r8)
 8002d96:	46bd      	mov	sp, r7
 8002d98:	b002      	add	sp, #8
 8002d9a:	bd80      	pop	{r7, pc}

08002d9c <TIM_Start>:
	}

}

void TIM_Start(TIM_t * tim)
{
 8002d9c:	b580      	push	{r7, lr}
 8002d9e:	b082      	sub	sp, #8
 8002da0:	af00      	add	r7, sp, #0
 8002da2:	6078      	str	r0, [r7, #4]
	TIM_Reload(tim);
 8002da4:	687b      	ldr	r3, [r7, #4]
 8002da6:	0018      	movs	r0, r3
 8002da8:	f000 f80c 	bl	8002dc4 <TIM_Reload>
	__HAL_TIM_ENABLE(tim);
 8002dac:	687b      	ldr	r3, [r7, #4]
 8002dae:	681b      	ldr	r3, [r3, #0]
 8002db0:	681a      	ldr	r2, [r3, #0]
 8002db2:	687b      	ldr	r3, [r7, #4]
 8002db4:	681b      	ldr	r3, [r3, #0]
 8002db6:	2101      	movs	r1, #1
 8002db8:	430a      	orrs	r2, r1
 8002dba:	601a      	str	r2, [r3, #0]
}
 8002dbc:	46c0      	nop			@ (mov r8, r8)
 8002dbe:	46bd      	mov	sp, r7
 8002dc0:	b002      	add	sp, #8
 8002dc2:	bd80      	pop	{r7, pc}

08002dc4 <TIM_Reload>:


}

static void TIM_Reload(TIM_t * tim)
{
 8002dc4:	b580      	push	{r7, lr}
 8002dc6:	b084      	sub	sp, #16
 8002dc8:	af00      	add	r7, sp, #0
 8002dca:	6078      	str	r0, [r7, #4]
	// Disable all timer event sources.
	uint32_t itSources = tim->Instance->DIER;
 8002dcc:	687b      	ldr	r3, [r7, #4]
 8002dce:	681b      	ldr	r3, [r3, #0]
 8002dd0:	68db      	ldr	r3, [r3, #12]
 8002dd2:	60fb      	str	r3, [r7, #12]
	tim->Instance->DIER = 0;
 8002dd4:	687b      	ldr	r3, [r7, #4]
 8002dd6:	681b      	ldr	r3, [r3, #0]
 8002dd8:	2200      	movs	r2, #0
 8002dda:	60da      	str	r2, [r3, #12]

	// Update the prescalar
	tim->Instance->EGR = TIM_EGR_UG;
 8002ddc:	687b      	ldr	r3, [r7, #4]
 8002dde:	681b      	ldr	r3, [r3, #0]
 8002de0:	2201      	movs	r2, #1
 8002de2:	615a      	str	r2, [r3, #20]

	// Clear the event before it occurrs.
	__HAL_TIM_CLEAR_IT(tim, TIM_IT_UPDATE);
 8002de4:	687b      	ldr	r3, [r7, #4]
 8002de6:	681b      	ldr	r3, [r3, #0]
 8002de8:	2202      	movs	r2, #2
 8002dea:	4252      	negs	r2, r2
 8002dec:	611a      	str	r2, [r3, #16]
	tim->Instance->DIER = itSources;
 8002dee:	687b      	ldr	r3, [r7, #4]
 8002df0:	681b      	ldr	r3, [r3, #0]
 8002df2:	68fa      	ldr	r2, [r7, #12]
 8002df4:	60da      	str	r2, [r3, #12]
}
 8002df6:	46c0      	nop			@ (mov r8, r8)
 8002df8:	46bd      	mov	sp, r7
 8002dfa:	b004      	add	sp, #16
 8002dfc:	bd80      	pop	{r7, pc}
	...

08002e00 <TIMx_Init>:

static void TIMx_Init(TIM_t * tim)
{
 8002e00:	b580      	push	{r7, lr}
 8002e02:	b088      	sub	sp, #32
 8002e04:	af00      	add	r7, sp, #0
 8002e06:	6078      	str	r0, [r7, #4]
#ifdef TIM1_ENABLE
	if (tim == TIM_1)
 8002e08:	4b39      	ldr	r3, [pc, #228]	@ (8002ef0 <TIMx_Init+0xf0>)
 8002e0a:	681b      	ldr	r3, [r3, #0]
 8002e0c:	687a      	ldr	r2, [r7, #4]
 8002e0e:	429a      	cmp	r2, r3
 8002e10:	d113      	bne.n	8002e3a <TIMx_Init+0x3a>
	{
		HAL_NVIC_EnableIRQ(TIM1_BRK_UP_TRG_COM_IRQn);
 8002e12:	200d      	movs	r0, #13
 8002e14:	f7ff f8d5 	bl	8001fc2 <HAL_NVIC_EnableIRQ>
		HAL_NVIC_EnableIRQ(TIM1_CC_IRQn);
 8002e18:	200e      	movs	r0, #14
 8002e1a:	f7ff f8d2 	bl	8001fc2 <HAL_NVIC_EnableIRQ>
		__HAL_RCC_TIM1_CLK_ENABLE();
 8002e1e:	4b35      	ldr	r3, [pc, #212]	@ (8002ef4 <TIMx_Init+0xf4>)
 8002e20:	6c1a      	ldr	r2, [r3, #64]	@ 0x40
 8002e22:	4b34      	ldr	r3, [pc, #208]	@ (8002ef4 <TIMx_Init+0xf4>)
 8002e24:	2180      	movs	r1, #128	@ 0x80
 8002e26:	0109      	lsls	r1, r1, #4
 8002e28:	430a      	orrs	r2, r1
 8002e2a:	641a      	str	r2, [r3, #64]	@ 0x40
 8002e2c:	4b31      	ldr	r3, [pc, #196]	@ (8002ef4 <TIMx_Init+0xf4>)
 8002e2e:	6c1a      	ldr	r2, [r3, #64]	@ 0x40
 8002e30:	2380      	movs	r3, #128	@ 0x80
 8002e32:	011b      	lsls	r3, r3, #4
 8002e34:	4013      	ands	r3, r2
 8002e36:	61fb      	str	r3, [r7, #28]
 8002e38:	69fb      	ldr	r3, [r7, #28]
		HAL_NVIC_EnableIRQ(TIM2_IRQn);
		__HAL_RCC_TIM2_CLK_ENABLE();
	}
#endif
#ifdef TIM3_ENABLE
	if (tim == TIM_3)
 8002e3a:	4b2f      	ldr	r3, [pc, #188]	@ (8002ef8 <TIMx_Init+0xf8>)
 8002e3c:	681b      	ldr	r3, [r3, #0]
 8002e3e:	687a      	ldr	r2, [r7, #4]
 8002e40:	429a      	cmp	r2, r3
 8002e42:	d10e      	bne.n	8002e62 <TIMx_Init+0x62>
	{
		HAL_NVIC_EnableIRQ(TIM3_IRQn);
 8002e44:	2010      	movs	r0, #16
 8002e46:	f7ff f8bc 	bl	8001fc2 <HAL_NVIC_EnableIRQ>
		__HAL_RCC_TIM3_CLK_ENABLE();
 8002e4a:	4b2a      	ldr	r3, [pc, #168]	@ (8002ef4 <TIMx_Init+0xf4>)
 8002e4c:	6bda      	ldr	r2, [r3, #60]	@ 0x3c
 8002e4e:	4b29      	ldr	r3, [pc, #164]	@ (8002ef4 <TIMx_Init+0xf4>)
 8002e50:	2102      	movs	r1, #2
 8002e52:	430a      	orrs	r2, r1
 8002e54:	63da      	str	r2, [r3, #60]	@ 0x3c
 8002e56:	4b27      	ldr	r3, [pc, #156]	@ (8002ef4 <TIMx_Init+0xf4>)
 8002e58:	6bdb      	ldr	r3, [r3, #60]	@ 0x3c
 8002e5a:	2202      	movs	r2, #2
 8002e5c:	4013      	ands	r3, r2
 8002e5e:	61bb      	str	r3, [r7, #24]
 8002e60:	69bb      	ldr	r3, [r7, #24]
		HAL_NVIC_EnableIRQ(TIM6_IRQn);
		__HAL_RCC_TIM6_CLK_ENABLE();
	}
#endif
#ifdef TIM14_ENABLE
	if (tim == TIM_14)
 8002e62:	4b26      	ldr	r3, [pc, #152]	@ (8002efc <TIMx_Init+0xfc>)
 8002e64:	681b      	ldr	r3, [r3, #0]
 8002e66:	687a      	ldr	r2, [r7, #4]
 8002e68:	429a      	cmp	r2, r3
 8002e6a:	d110      	bne.n	8002e8e <TIMx_Init+0x8e>
	{
		HAL_NVIC_EnableIRQ(TIM14_IRQn);
 8002e6c:	2013      	movs	r0, #19
 8002e6e:	f7ff f8a8 	bl	8001fc2 <HAL_NVIC_EnableIRQ>
		__HAL_RCC_TIM14_CLK_ENABLE();
 8002e72:	4b20      	ldr	r3, [pc, #128]	@ (8002ef4 <TIMx_Init+0xf4>)
 8002e74:	6c1a      	ldr	r2, [r3, #64]	@ 0x40
 8002e76:	4b1f      	ldr	r3, [pc, #124]	@ (8002ef4 <TIMx_Init+0xf4>)
 8002e78:	2180      	movs	r1, #128	@ 0x80
 8002e7a:	0209      	lsls	r1, r1, #8
 8002e7c:	430a      	orrs	r2, r1
 8002e7e:	641a      	str	r2, [r3, #64]	@ 0x40
 8002e80:	4b1c      	ldr	r3, [pc, #112]	@ (8002ef4 <TIMx_Init+0xf4>)
 8002e82:	6c1a      	ldr	r2, [r3, #64]	@ 0x40
 8002e84:	2380      	movs	r3, #128	@ 0x80
 8002e86:	021b      	lsls	r3, r3, #8
 8002e88:	4013      	ands	r3, r2
 8002e8a:	617b      	str	r3, [r7, #20]
 8002e8c:	697b      	ldr	r3, [r7, #20]
	}
#endif
#ifdef TIM16_ENABLE
	if (tim == TIM_16)
 8002e8e:	4b1c      	ldr	r3, [pc, #112]	@ (8002f00 <TIMx_Init+0x100>)
 8002e90:	681b      	ldr	r3, [r3, #0]
 8002e92:	687a      	ldr	r2, [r7, #4]
 8002e94:	429a      	cmp	r2, r3
 8002e96:	d110      	bne.n	8002eba <TIMx_Init+0xba>
	{
		HAL_NVIC_EnableIRQ(TIM16_IRQn);
 8002e98:	2015      	movs	r0, #21
 8002e9a:	f7ff f892 	bl	8001fc2 <HAL_NVIC_EnableIRQ>
		__HAL_RCC_TIM16_CLK_ENABLE();
 8002e9e:	4b15      	ldr	r3, [pc, #84]	@ (8002ef4 <TIMx_Init+0xf4>)
 8002ea0:	6c1a      	ldr	r2, [r3, #64]	@ 0x40
 8002ea2:	4b14      	ldr	r3, [pc, #80]	@ (8002ef4 <TIMx_Init+0xf4>)
 8002ea4:	2180      	movs	r1, #128	@ 0x80
 8002ea6:	0289      	lsls	r1, r1, #10
 8002ea8:	430a      	orrs	r2, r1
 8002eaa:	641a      	str	r2, [r3, #64]	@ 0x40
 8002eac:	4b11      	ldr	r3, [pc, #68]	@ (8002ef4 <TIMx_Init+0xf4>)
 8002eae:	6c1a      	ldr	r2, [r3, #64]	@ 0x40
 8002eb0:	2380      	movs	r3, #128	@ 0x80
 8002eb2:	029b      	lsls	r3, r3, #10
 8002eb4:	4013      	ands	r3, r2
 8002eb6:	613b      	str	r3, [r7, #16]
 8002eb8:	693b      	ldr	r3, [r7, #16]
	}
#endif
#ifdef TIM17_ENABLE
	if (tim == TIM_17)
 8002eba:	4b12      	ldr	r3, [pc, #72]	@ (8002f04 <TIMx_Init+0x104>)
 8002ebc:	681b      	ldr	r3, [r3, #0]
 8002ebe:	687a      	ldr	r2, [r7, #4]
 8002ec0:	429a      	cmp	r2, r3
 8002ec2:	d110      	bne.n	8002ee6 <TIMx_Init+0xe6>
	{
		HAL_NVIC_EnableIRQ(TIM17_IRQn);
 8002ec4:	2016      	movs	r0, #22
 8002ec6:	f7ff f87c 	bl	8001fc2 <HAL_NVIC_EnableIRQ>
		__HAL_RCC_TIM17_CLK_ENABLE();
 8002eca:	4b0a      	ldr	r3, [pc, #40]	@ (8002ef4 <TIMx_Init+0xf4>)
 8002ecc:	6c1a      	ldr	r2, [r3, #64]	@ 0x40
 8002ece:	4b09      	ldr	r3, [pc, #36]	@ (8002ef4 <TIMx_Init+0xf4>)
 8002ed0:	2180      	movs	r1, #128	@ 0x80
 8002ed2:	02c9      	lsls	r1, r1, #11
 8002ed4:	430a      	orrs	r2, r1
 8002ed6:	641a      	str	r2, [r3, #64]	@ 0x40
 8002ed8:	4b06      	ldr	r3, [pc, #24]	@ (8002ef4 <TIMx_Init+0xf4>)
 8002eda:	6c1a      	ldr	r2, [r3, #64]	@ 0x40
 8002edc:	2380      	movs	r3, #128	@ 0x80
 8002ede:	02db      	lsls	r3, r3, #11
 8002ee0:	4013      	ands	r3, r2
 8002ee2:	60fb      	str	r3, [r7, #12]
 8002ee4:	68fb      	ldr	r3, [r7, #12]
	{
		HAL_NVIC_EnableIRQ(TIM22_IRQn);
		__HAL_RCC_TIM22_CLK_ENABLE();
	}
#endif
}
 8002ee6:	46c0      	nop			@ (mov r8, r8)
 8002ee8:	46bd      	mov	sp, r7
 8002eea:	b008      	add	sp, #32
 8002eec:	bd80      	pop	{r7, pc}
 8002eee:	46c0      	nop			@ (mov r8, r8)
 8002ef0:	2000002c 	.word	0x2000002c
 8002ef4:	40021000 	.word	0x40021000
 8002ef8:	20000048 	.word	0x20000048
 8002efc:	20000064 	.word	0x20000064
 8002f00:	20000080 	.word	0x20000080
 8002f04:	2000009c 	.word	0x2000009c

08002f08 <TIM_IRQHandler>:
 */

#ifdef TIM_USE_IRQS

static void TIM_IRQHandler(TIM_t * tim)
{
 8002f08:	b580      	push	{r7, lr}
 8002f0a:	b084      	sub	sp, #16
 8002f0c:	af00      	add	r7, sp, #0
 8002f0e:	6078      	str	r0, [r7, #4]
	uint32_t irqs = TIM_GET_IRQ_SOURCES(tim);
 8002f10:	687b      	ldr	r3, [r7, #4]
 8002f12:	681b      	ldr	r3, [r3, #0]
 8002f14:	691a      	ldr	r2, [r3, #16]
 8002f16:	687b      	ldr	r3, [r7, #4]
 8002f18:	681b      	ldr	r3, [r3, #0]
 8002f1a:	68db      	ldr	r3, [r3, #12]
 8002f1c:	4013      	ands	r3, r2
 8002f1e:	60fb      	str	r3, [r7, #12]
	if(irqs & TIM_FLAG_CC1)
 8002f20:	68fb      	ldr	r3, [r7, #12]
 8002f22:	2202      	movs	r2, #2
 8002f24:	4013      	ands	r3, r2
 8002f26:	d007      	beq.n	8002f38 <TIM_IRQHandler+0x30>
	{
		__HAL_TIM_CLEAR_IT(tim, TIM_IT_CC1);
 8002f28:	687b      	ldr	r3, [r7, #4]
 8002f2a:	681b      	ldr	r3, [r3, #0]
 8002f2c:	2203      	movs	r2, #3
 8002f2e:	4252      	negs	r2, r2
 8002f30:	611a      	str	r2, [r3, #16]
		tim->PulseCallback[0]();
 8002f32:	687b      	ldr	r3, [r7, #4]
 8002f34:	689b      	ldr	r3, [r3, #8]
 8002f36:	4798      	blx	r3
	}
	if(irqs & TIM_FLAG_CC2)
 8002f38:	68fb      	ldr	r3, [r7, #12]
 8002f3a:	2204      	movs	r2, #4
 8002f3c:	4013      	ands	r3, r2
 8002f3e:	d007      	beq.n	8002f50 <TIM_IRQHandler+0x48>
	{
		__HAL_TIM_CLEAR_IT(tim, TIM_IT_CC2);
 8002f40:	687b      	ldr	r3, [r7, #4]
 8002f42:	681b      	ldr	r3, [r3, #0]
 8002f44:	2205      	movs	r2, #5
 8002f46:	4252      	negs	r2, r2
 8002f48:	611a      	str	r2, [r3, #16]
		tim->PulseCallback[1]();
 8002f4a:	687b      	ldr	r3, [r7, #4]
 8002f4c:	68db      	ldr	r3, [r3, #12]
 8002f4e:	4798      	blx	r3
	}
	if(irqs & TIM_FLAG_CC3)
 8002f50:	68fb      	ldr	r3, [r7, #12]
 8002f52:	2208      	movs	r2, #8
 8002f54:	4013      	ands	r3, r2
 8002f56:	d007      	beq.n	8002f68 <TIM_IRQHandler+0x60>
	{
		__HAL_TIM_CLEAR_IT(tim, TIM_IT_CC3);
 8002f58:	687b      	ldr	r3, [r7, #4]
 8002f5a:	681b      	ldr	r3, [r3, #0]
 8002f5c:	2209      	movs	r2, #9
 8002f5e:	4252      	negs	r2, r2
 8002f60:	611a      	str	r2, [r3, #16]
		tim->PulseCallback[2]();
 8002f62:	687b      	ldr	r3, [r7, #4]
 8002f64:	691b      	ldr	r3, [r3, #16]
 8002f66:	4798      	blx	r3
	}
	if(irqs & TIM_FLAG_CC4)
 8002f68:	68fb      	ldr	r3, [r7, #12]
 8002f6a:	2210      	movs	r2, #16
 8002f6c:	4013      	ands	r3, r2
 8002f6e:	d007      	beq.n	8002f80 <TIM_IRQHandler+0x78>
	{
		__HAL_TIM_CLEAR_IT(tim, TIM_IT_CC4);
 8002f70:	687b      	ldr	r3, [r7, #4]
 8002f72:	681b      	ldr	r3, [r3, #0]
 8002f74:	2211      	movs	r2, #17
 8002f76:	4252      	negs	r2, r2
 8002f78:	611a      	str	r2, [r3, #16]
		tim->PulseCallback[3]();
 8002f7a:	687b      	ldr	r3, [r7, #4]
 8002f7c:	695b      	ldr	r3, [r3, #20]
 8002f7e:	4798      	blx	r3
	}
	if(irqs & TIM_FLAG_UPDATE)
 8002f80:	68fb      	ldr	r3, [r7, #12]
 8002f82:	2201      	movs	r2, #1
 8002f84:	4013      	ands	r3, r2
 8002f86:	d007      	beq.n	8002f98 <TIM_IRQHandler+0x90>
	{
		__HAL_TIM_CLEAR_IT(tim, TIM_IT_UPDATE);
 8002f88:	687b      	ldr	r3, [r7, #4]
 8002f8a:	681b      	ldr	r3, [r3, #0]
 8002f8c:	2202      	movs	r2, #2
 8002f8e:	4252      	negs	r2, r2
 8002f90:	611a      	str	r2, [r3, #16]
		tim->ReloadCallback();
 8002f92:	687b      	ldr	r3, [r7, #4]
 8002f94:	685b      	ldr	r3, [r3, #4]
 8002f96:	4798      	blx	r3
	}
}
 8002f98:	46c0      	nop			@ (mov r8, r8)
 8002f9a:	46bd      	mov	sp, r7
 8002f9c:	b004      	add	sp, #16
 8002f9e:	bd80      	pop	{r7, pc}

08002fa0 <TIM1_BRK_UP_TRG_COM_IRQHandler>:

#ifdef TIM1_ENABLE
void TIM1_BRK_UP_TRG_COM_IRQHandler(void)
{
 8002fa0:	b580      	push	{r7, lr}
 8002fa2:	af00      	add	r7, sp, #0
	TIM_IRQHandler(TIM_1);
 8002fa4:	4b03      	ldr	r3, [pc, #12]	@ (8002fb4 <TIM1_BRK_UP_TRG_COM_IRQHandler+0x14>)
 8002fa6:	681b      	ldr	r3, [r3, #0]
 8002fa8:	0018      	movs	r0, r3
 8002faa:	f7ff ffad 	bl	8002f08 <TIM_IRQHandler>
}
 8002fae:	46c0      	nop			@ (mov r8, r8)
 8002fb0:	46bd      	mov	sp, r7
 8002fb2:	bd80      	pop	{r7, pc}
 8002fb4:	2000002c 	.word	0x2000002c

08002fb8 <TIM1_CC_IRQHandler>:
void TIM1_CC_IRQHandler(void)
{
 8002fb8:	b580      	push	{r7, lr}
 8002fba:	af00      	add	r7, sp, #0
	TIM_IRQHandler(TIM_1);
 8002fbc:	4b03      	ldr	r3, [pc, #12]	@ (8002fcc <TIM1_CC_IRQHandler+0x14>)
 8002fbe:	681b      	ldr	r3, [r3, #0]
 8002fc0:	0018      	movs	r0, r3
 8002fc2:	f7ff ffa1 	bl	8002f08 <TIM_IRQHandler>
}
 8002fc6:	46c0      	nop			@ (mov r8, r8)
 8002fc8:	46bd      	mov	sp, r7
 8002fca:	bd80      	pop	{r7, pc}
 8002fcc:	2000002c 	.word	0x2000002c

08002fd0 <TIM3_IRQHandler>:
	TIM_IRQHandler(TIM_2);
}
#endif
#ifdef TIM3_ENABLE
void TIM3_IRQHandler(void)
{
 8002fd0:	b580      	push	{r7, lr}
 8002fd2:	af00      	add	r7, sp, #0
	TIM_IRQHandler(TIM_3);
 8002fd4:	4b03      	ldr	r3, [pc, #12]	@ (8002fe4 <TIM3_IRQHandler+0x14>)
 8002fd6:	681b      	ldr	r3, [r3, #0]
 8002fd8:	0018      	movs	r0, r3
 8002fda:	f7ff ff95 	bl	8002f08 <TIM_IRQHandler>
}
 8002fde:	46c0      	nop			@ (mov r8, r8)
 8002fe0:	46bd      	mov	sp, r7
 8002fe2:	bd80      	pop	{r7, pc}
 8002fe4:	20000048 	.word	0x20000048

08002fe8 <TIM14_IRQHandler>:
	TIM_IRQHandler(TIM_6);
}
#endif
#ifdef TIM14_ENABLE
void TIM14_IRQHandler(void)
{
 8002fe8:	b580      	push	{r7, lr}
 8002fea:	af00      	add	r7, sp, #0
	TIM_IRQHandler(TIM_14);
 8002fec:	4b03      	ldr	r3, [pc, #12]	@ (8002ffc <TIM14_IRQHandler+0x14>)
 8002fee:	681b      	ldr	r3, [r3, #0]
 8002ff0:	0018      	movs	r0, r3
 8002ff2:	f7ff ff89 	bl	8002f08 <TIM_IRQHandler>
}
 8002ff6:	46c0      	nop			@ (mov r8, r8)
 8002ff8:	46bd      	mov	sp, r7
 8002ffa:	bd80      	pop	{r7, pc}
 8002ffc:	20000064 	.word	0x20000064

08003000 <TIM16_IRQHandler>:
#endif
#ifdef TIM16_ENABLE
void TIM16_IRQHandler(void)
{
 8003000:	b580      	push	{r7, lr}
 8003002:	af00      	add	r7, sp, #0
	TIM_IRQHandler(TIM_16);
 8003004:	4b03      	ldr	r3, [pc, #12]	@ (8003014 <TIM16_IRQHandler+0x14>)
 8003006:	681b      	ldr	r3, [r3, #0]
 8003008:	0018      	movs	r0, r3
 800300a:	f7ff ff7d 	bl	8002f08 <TIM_IRQHandler>
}
 800300e:	46c0      	nop			@ (mov r8, r8)
 8003010:	46bd      	mov	sp, r7
 8003012:	bd80      	pop	{r7, pc}
 8003014:	20000080 	.word	0x20000080

08003018 <TIM17_IRQHandler>:
#endif
#ifdef TIM17_ENABLE
void TIM17_IRQHandler(void)
{
 8003018:	b580      	push	{r7, lr}
 800301a:	af00      	add	r7, sp, #0
	TIM_IRQHandler(TIM_17);
 800301c:	4b03      	ldr	r3, [pc, #12]	@ (800302c <TIM17_IRQHandler+0x14>)
 800301e:	681b      	ldr	r3, [r3, #0]
 8003020:	0018      	movs	r0, r3
 8003022:	f7ff ff71 	bl	8002f08 <TIM_IRQHandler>
}
 8003026:	46c0      	nop			@ (mov r8, r8)
 8003028:	46bd      	mov	sp, r7
 800302a:	bd80      	pop	{r7, pc}
 800302c:	2000009c 	.word	0x2000009c

08003030 <CLK_GetHCLKFreq>:
{
 8003030:	b580      	push	{r7, lr}
 8003032:	af00      	add	r7, sp, #0
	return CLK_SYSCLK_FREQ;
 8003034:	4b01      	ldr	r3, [pc, #4]	@ (800303c <CLK_GetHCLKFreq+0xc>)
}
 8003036:	0018      	movs	r0, r3
 8003038:	46bd      	mov	sp, r7
 800303a:	bd80      	pop	{r7, pc}
 800303c:	02dc6c00 	.word	0x02dc6c00

08003040 <US_Delay>:
}

#else //US_ENABLE

void __attribute__((optimize("-Os"))) US_Delay(uint32_t us)
{
 8003040:	b513      	push	{r0, r1, r4, lr}
 8003042:	0004      	movs	r4, r0
	// -Os will generate a straight forward output.
	// 11225 is our tuned factor.
	volatile uint32_t i = (us * (CLK_GetHCLKFreq() >> 10)) / 11225;
 8003044:	f7ff fff4 	bl	8003030 <CLK_GetHCLKFreq>
 8003048:	0a80      	lsrs	r0, r0, #10
 800304a:	4360      	muls	r0, r4
 800304c:	4904      	ldr	r1, [pc, #16]	@ (8003060 <US_Delay+0x20>)
 800304e:	f7fd f85b 	bl	8000108 <__udivsi3>
 8003052:	9001      	str	r0, [sp, #4]
	while(i--);
 8003054:	9b01      	ldr	r3, [sp, #4]
 8003056:	1e5a      	subs	r2, r3, #1
 8003058:	9201      	str	r2, [sp, #4]
 800305a:	2b00      	cmp	r3, #0
 800305c:	d1fa      	bne.n	8003054 <US_Delay+0x14>
}
 800305e:	bd13      	pop	{r0, r1, r4, pc}
 8003060:	00002bd9 	.word	0x00002bd9

08003064 <__libc_init_array>:
 8003064:	b570      	push	{r4, r5, r6, lr}
 8003066:	2600      	movs	r6, #0
 8003068:	4c0c      	ldr	r4, [pc, #48]	@ (800309c <__libc_init_array+0x38>)
 800306a:	4d0d      	ldr	r5, [pc, #52]	@ (80030a0 <__libc_init_array+0x3c>)
 800306c:	1b64      	subs	r4, r4, r5
 800306e:	10a4      	asrs	r4, r4, #2
 8003070:	42a6      	cmp	r6, r4
 8003072:	d109      	bne.n	8003088 <__libc_init_array+0x24>
 8003074:	2600      	movs	r6, #0
 8003076:	f000 f823 	bl	80030c0 <_init>
 800307a:	4c0a      	ldr	r4, [pc, #40]	@ (80030a4 <__libc_init_array+0x40>)
 800307c:	4d0a      	ldr	r5, [pc, #40]	@ (80030a8 <__libc_init_array+0x44>)
 800307e:	1b64      	subs	r4, r4, r5
 8003080:	10a4      	asrs	r4, r4, #2
 8003082:	42a6      	cmp	r6, r4
 8003084:	d105      	bne.n	8003092 <__libc_init_array+0x2e>
 8003086:	bd70      	pop	{r4, r5, r6, pc}
 8003088:	00b3      	lsls	r3, r6, #2
 800308a:	58eb      	ldr	r3, [r5, r3]
 800308c:	4798      	blx	r3
 800308e:	3601      	adds	r6, #1
 8003090:	e7ee      	b.n	8003070 <__libc_init_array+0xc>
 8003092:	00b3      	lsls	r3, r6, #2
 8003094:	58eb      	ldr	r3, [r5, r3]
 8003096:	4798      	blx	r3
 8003098:	3601      	adds	r6, #1
 800309a:	e7f2      	b.n	8003082 <__libc_init_array+0x1e>
 800309c:	08003118 	.word	0x08003118
 80030a0:	08003118 	.word	0x08003118
 80030a4:	0800311c 	.word	0x0800311c
 80030a8:	08003118 	.word	0x08003118

080030ac <memcpy>:
 80030ac:	2300      	movs	r3, #0
 80030ae:	b510      	push	{r4, lr}
 80030b0:	429a      	cmp	r2, r3
 80030b2:	d100      	bne.n	80030b6 <memcpy+0xa>
 80030b4:	bd10      	pop	{r4, pc}
 80030b6:	5ccc      	ldrb	r4, [r1, r3]
 80030b8:	54c4      	strb	r4, [r0, r3]
 80030ba:	3301      	adds	r3, #1
 80030bc:	e7f8      	b.n	80030b0 <memcpy+0x4>
	...

080030c0 <_init>:
 80030c0:	b5f8      	push	{r3, r4, r5, r6, r7, lr}
 80030c2:	46c0      	nop			@ (mov r8, r8)
 80030c4:	bcf8      	pop	{r3, r4, r5, r6, r7}
 80030c6:	bc08      	pop	{r3}
 80030c8:	469e      	mov	lr, r3
 80030ca:	4770      	bx	lr

080030cc <_fini>:
 80030cc:	b5f8      	push	{r3, r4, r5, r6, r7, lr}
 80030ce:	46c0      	nop			@ (mov r8, r8)
 80030d0:	bcf8      	pop	{r3, r4, r5, r6, r7}
 80030d2:	bc08      	pop	{r3}
 80030d4:	469e      	mov	lr, r3
 80030d6:	4770      	bx	lr
